	.text
	.syntax unified
	.eabi_attribute	67, "2.09"	@ Tag_conformance
	.cpu	cortex-a8
	.eabi_attribute	6, 10	@ Tag_CPU_arch
	.eabi_attribute	7, 65	@ Tag_CPU_arch_profile
	.eabi_attribute	8, 1	@ Tag_ARM_ISA_use
	.eabi_attribute	9, 2	@ Tag_THUMB_ISA_use
	.fpu	neon
	.eabi_attribute	17, 1	@ Tag_ABI_PCS_GOT_use
	.eabi_attribute	20, 2	@ Tag_ABI_FP_denormal
	.eabi_attribute	23, 1	@ Tag_ABI_FP_number_model
	.eabi_attribute	34, 1	@ Tag_CPU_unaligned_access
	.eabi_attribute	24, 1	@ Tag_ABI_align_needed
	.eabi_attribute	25, 1	@ Tag_ABI_align_preserved
	.eabi_attribute	28, 1	@ Tag_ABI_VFP_args
	.eabi_attribute	38, 1	@ Tag_ABI_FP_16bit_format
	.eabi_attribute	18, 4	@ Tag_ABI_PCS_wchar_t
	.eabi_attribute	26, 2	@ Tag_ABI_enum_size
	.eabi_attribute	14, 0	@ Tag_ABI_PCS_R9_use
	.eabi_attribute	68, 1	@ Tag_Virtualization_use
	.file	"/root/Bela/projects/filter_matching2/build/render.bc"
	.file	1 "/usr/bin/../lib/gcc/arm-linux-gnueabihf/6.3.0/../../../../include/arm-linux-gnueabihf/c++/6.3.0/bits" "c++config.h"
	.file	2 "/usr/bin/../lib/gcc/arm-linux-gnueabihf/6.3.0/../../../../include/c++/6.3.0/bits" "stringfwd.h"
	.file	3 "./libraries/Pipe" "Pipe.h"
	.file	4 "/usr/lib/llvm-3.9/bin/../lib/clang/3.9.1/include" "stddef.h"
	.file	5 "/usr/include/arm-linux-gnueabihf/bits" "types.h"
	.file	6 "/usr/include" "unistd.h"
	.file	7 "/root/Bela/projects/filter_matching2" "render.cpp"
	.file	8 "/usr/bin/../lib/gcc/arm-linux-gnueabihf/6.3.0/../../../../include/c++/6.3.0/bits" "alloc_traits.h"
	.file	9 "/usr/bin/../lib/gcc/arm-linux-gnueabihf/6.3.0/../../../../include/c++/6.3.0/ext" "new_allocator.h"
	.file	10 "/usr/bin/../lib/gcc/arm-linux-gnueabihf/6.3.0/../../../../include/arm-linux-gnueabihf/c++/6.3.0/bits" "c++allocator.h"
	.file	11 "/usr/bin/../lib/gcc/arm-linux-gnueabihf/6.3.0/../../../../include/c++/6.3.0/bits" "allocator.h"
	.file	12 "/usr/bin/../lib/gcc/arm-linux-gnueabihf/6.3.0/../../../../include/c++/6.3.0/ext" "alloc_traits.h"
	.file	13 "/usr/bin/../lib/gcc/arm-linux-gnueabihf/6.3.0/../../../../include/c++/6.3.0/bits" "stl_vector.h"
	.file	14 "/usr/bin/../lib/gcc/arm-linux-gnueabihf/6.3.0/../../../../include/c++/6.3.0" "type_traits"
	.file	15 "./libraries/Gui" "Gui.h"
	.file	16 "/usr/bin/../lib/gcc/arm-linux-gnueabihf/6.3.0/../../../../include/c++/6.3.0/bits" "unique_ptr.h"
	.file	17 "/usr/bin/../lib/gcc/arm-linux-gnueabihf/6.3.0/../../../../include/c++/6.3.0" "tuple"
	.file	18 "/usr/bin/../lib/gcc/arm-linux-gnueabihf/6.3.0/../../../../include/c++/6.3.0/bits" "uses_allocator.h"
	.file	19 "/usr/bin/../lib/gcc/arm-linux-gnueabihf/6.3.0/../../../../include/c++/6.3.0/bits" "stl_pair.h"
	.file	20 "./include" "JSONValue.h"
	.file	21 "./include" "JSON.h"
	.file	22 "/usr/bin/../lib/gcc/arm-linux-gnueabihf/6.3.0/../../../../include/c++/6.3.0/bits" "stl_tree.h"
	.file	23 "/usr/bin/../lib/gcc/arm-linux-gnueabihf/6.3.0/../../../../include/c++/6.3.0/ext" "aligned_buffer.h"
	.file	24 "/usr/bin/../lib/gcc/arm-linux-gnueabihf/6.3.0/../../../../include/c++/6.3.0/bits" "stl_function.h"
	.file	25 "/usr/bin/../lib/gcc/arm-linux-gnueabihf/6.3.0/../../../../include/c++/6.3.0/bits" "stl_map.h"
	.file	26 "/usr/bin/../lib/gcc/arm-linux-gnueabihf/6.3.0/../../../../include/c++/6.3.0" "functional"
	.file	27 "./libraries/Scope" "Scope.h"
	.file	28 "/usr/include/ne10" "NE10_types.h"
	.file	29 "./libraries/Biquad" "Biquad.h"
	.file	30 "/root/Bela/projects/filter_matching2" "ToneGenerator.h"
	.file	31 "/usr/bin/../lib/gcc/arm-linux-gnueabihf/6.3.0/../../../../include/c++/6.3.0/bits" "stl_iterator.h"
	.file	32 "/usr/bin/../lib/gcc/arm-linux-gnueabihf/6.3.0/../../../../include/c++/6.3.0/bits" "stl_iterator_base_types.h"
	.file	33 "/root/Bela/projects/filter_matching2" "GoertzelAlgorithm.h"
	.file	34 "./libraries/Fft" "Fft.h"
	.file	35 "/usr/bin/../lib/gcc/arm-linux-gnueabihf/6.3.0/../../../../include/c++/6.3.0/ext" "concurrence.h"
	.file	36 "/usr/bin/../lib/gcc/arm-linux-gnueabihf/6.3.0/../../../../include/c++/6.3.0/bits" "basic_string.h"
	.file	37 "./libraries/Midi" "Midi.h"
	.file	38 "/usr/bin/../lib/gcc/arm-linux-gnueabihf/6.3.0/../../../../include/c++/6.3.0/bits" "char_traits.h"
	.file	39 "/usr/bin/../lib/gcc/arm-linux-gnueabihf/6.3.0/../../../../include/c++/6.3.0/ext" "numeric_traits.h"
	.file	40 "/usr/bin/../lib/gcc/arm-linux-gnueabihf/6.3.0/../../../../include/c++/6.3.0/debug" "debug.h"
	.file	41 "/usr/bin/../lib/gcc/arm-linux-gnueabihf/6.3.0/../../../../include/c++/6.3.0/bits" "exception_ptr.h"
	.file	42 "/usr/include" "stdlib.h"
	.file	43 "/usr/include/arm-linux-gnueabihf/bits" "stdlib-float.h"
	.file	44 "/usr/include/arm-linux-gnueabihf/bits" "stdlib-bsearch.h"
	.file	45 "/usr/bin/../lib/gcc/arm-linux-gnueabihf/6.3.0/../../../../include/c++/6.3.0" "cstdlib"
	.file	46 "/root/Bela/projects/filter_matching2/build" "render.cpp"
	.file	47 "/usr/include/arm-linux-gnueabihf/bits" "math-finite.h"
	.file	48 "/usr/include/arm-linux-gnueabihf/bits" "mathcalls.h"
	.file	49 "/usr/include/arm-linux-gnueabihf/bits" "mathdef.h"
	.file	50 "/usr/include" "wchar.h"
	.file	51 "/usr/include" "libio.h"
	.file	52 "/usr/include" "stdio.h"
	.file	53 "/usr/lib/llvm-3.9/bin/../lib/clang/3.9.1/include" "stdarg.h"
	.file	54 "/usr/include" "stdint.h"
	.file	55 "/usr/include" "locale.h"
	.file	56 "/usr/include" "ctype.h"
	.file	57 "/usr/include" "_G_config.h"
	.file	58 "/usr/include/arm-linux-gnueabihf/bits" "stdio.h"
	.file	59 "/usr/include" "string.h"
	.file	60 "/usr/bin/../lib/gcc/arm-linux-gnueabihf/6.3.0/../../../../include/c++/6.3.0" "cmath"
	.section	.text._ZN4PipeD2Ev,"axG",%progbits,_ZN4PipeD2Ev,comdat
	.weak	_ZN4PipeD2Ev
	.p2align	2
	.type	_ZN4PipeD2Ev,%function
_ZN4PipeD2Ev:                           @ @_ZN4PipeD2Ev
.Lfunc_begin0:
	.loc	3 14 0                  @ ./libraries/Pipe/Pipe.h:14:0
	.fnstart
	.cfi_startproc
@ BB#0:
	.save	{r4, r5, r11, lr}
	push	{r4, r5, r11, lr}
.Ltmp3:
	.cfi_def_cfa_offset 16
.Ltmp4:
	.cfi_offset lr, -4
.Ltmp5:
	.cfi_offset r11, -8
.Ltmp6:
	.cfi_offset r5, -12
.Ltmp7:
	.cfi_offset r4, -16
	.setfp	r11, sp, #8
	add	r11, sp, #8
.Ltmp8:
	.cfi_def_cfa r11, 8
	@DEBUG_VALUE: ~Pipe:this <- %R0
	mov	r4, r0
.Ltmp9:
	@DEBUG_VALUE: ~Pipe:this <- %R4
	.loc	3 14 11 prologue_end    @ ./libraries/Pipe/Pipe.h:14:11
.Ltmp0:
	bl	_ZN4Pipe7cleanupEv
.Ltmp1:
.Ltmp10:
@ BB#1:
	@DEBUG_VALUE: ~Pipe:this <- %R4
	.loc	36 136 28               @ /usr/bin/../lib/gcc/arm-linux-gnueabihf/6.3.0/../../../../include/c++/6.3.0/bits/basic_string.h:136:28
	ldr	r0, [r4, #24]
.Ltmp11:
	@DEBUG_VALUE: deallocate:__p <- %R0
	@DEBUG_VALUE: deallocate:__p <- %R0
	.loc	36 152 57               @ /usr/bin/../lib/gcc/arm-linux-gnueabihf/6.3.0/../../../../include/c++/6.3.0/bits/basic_string.h:152:57
	add	r1, r4, #32
.Ltmp12:
	.loc	36 180 6                @ /usr/bin/../lib/gcc/arm-linux-gnueabihf/6.3.0/../../../../include/c++/6.3.0/bits/basic_string.h:180:6
	cmp	r0, r1
	beq	.LBB0_3
.Ltmp13:
@ BB#2:
	@DEBUG_VALUE: deallocate:__p <- %R0
	@DEBUG_VALUE: deallocate:__p <- %R0
	@DEBUG_VALUE: ~Pipe:this <- %R4
	.loc	9 110 9                 @ /usr/bin/../lib/gcc/arm-linux-gnueabihf/6.3.0/../../../../include/c++/6.3.0/ext/new_allocator.h:110:9
	bl	_ZdlPv
.Ltmp14:
.LBB0_3:                                @ %_ZNSt7__cxx1112basic_stringIcSt11char_traitsIcESaIcEED2Ev.exit
	@DEBUG_VALUE: ~Pipe:this <- %R4
	.loc	36 136 28               @ /usr/bin/../lib/gcc/arm-linux-gnueabihf/6.3.0/../../../../include/c++/6.3.0/bits/basic_string.h:136:28
	mov	r1, r4
	ldr	r0, [r1], #8
.Ltmp15:
	@DEBUG_VALUE: deallocate:__p <- %R0
	@DEBUG_VALUE: deallocate:__p <- %R0
	.loc	36 180 6                @ /usr/bin/../lib/gcc/arm-linux-gnueabihf/6.3.0/../../../../include/c++/6.3.0/bits/basic_string.h:180:6
	cmp	r0, r1
	beq	.LBB0_5
.Ltmp16:
@ BB#4:
	@DEBUG_VALUE: deallocate:__p <- %R0
	@DEBUG_VALUE: deallocate:__p <- %R0
	@DEBUG_VALUE: ~Pipe:this <- %R4
	.loc	9 110 9                 @ /usr/bin/../lib/gcc/arm-linux-gnueabihf/6.3.0/../../../../include/c++/6.3.0/ext/new_allocator.h:110:9
	bl	_ZdlPv
.Ltmp17:
.LBB0_5:                                @ %_ZNSt7__cxx1112basic_stringIcSt11char_traitsIcESaIcEED2Ev.exit2
	@DEBUG_VALUE: ~Pipe:this <- %R4
	.loc	3 14 21 discriminator 1 @ ./libraries/Pipe/Pipe.h:14:21
	mov	r0, r4
	pop	{r4, r5, r11, pc}
.Ltmp18:
.LBB0_6:
	@DEBUG_VALUE: ~Pipe:this <- %R4
.Ltmp2:
	mov	r5, r0
	.loc	3 14 21 is_stmt 0 discriminator 2 @ ./libraries/Pipe/Pipe.h:14:21
	add	r0, r4, #24
	bl	_ZNSt7__cxx1112basic_stringIcSt11char_traitsIcESaIcEED2Ev
	.loc	3 14 21 discriminator 5 @ ./libraries/Pipe/Pipe.h:14:21
	mov	r0, r4
	bl	_ZNSt7__cxx1112basic_stringIcSt11char_traitsIcESaIcEED2Ev
.Ltmp19:
	.loc	3 14 21 discriminator 3 @ ./libraries/Pipe/Pipe.h:14:21
	mov	r0, r5
	mov	lr, pc
	b	__cxa_call_unexpected
.Ltmp20:
.Lfunc_end0:
	.size	_ZN4PipeD2Ev, .Lfunc_end0-_ZN4PipeD2Ev
	.cfi_endproc
	.globl	__gxx_personality_v0
	.personality __gxx_personality_v0
	.handlerdata
	.p2align	2
GCC_except_table0:
.Lexception0:
	.byte	255                     @ @LPStart Encoding = omit
	.byte	0                       @ @TType Encoding = absptr
	.asciz	"\236\200\200"          @ @TType base offset
	.byte	3                       @ Call site Encoding = udata4
	.byte	26                      @ Call site table length
	.long	.Ltmp0-.Lfunc_begin0    @ >> Call Site 1 <<
	.long	.Ltmp1-.Ltmp0           @   Call between .Ltmp0 and .Ltmp1
	.long	.Ltmp2-.Lfunc_begin0    @     jumps to .Ltmp2
	.byte	1                       @   On action: 1
	.long	.Ltmp1-.Lfunc_begin0    @ >> Call Site 2 <<
	.long	.Lfunc_end0-.Ltmp1      @   Call between .Ltmp1 and .Lfunc_end0
	.long	0                       @     has no landing pad
	.byte	0                       @   On action: cleanup
	.byte	127                     @ >> Action Record 1 <<
                                        @   Filter TypeInfo -1
	.byte	0                       @   No further actions
                                        @ >> Filter TypeInfos <<
	.long	0
	.p2align	2
	.fnend

	.section	.text._ZNSt6vectorI6BiquadSaIS0_EED2Ev,"axG",%progbits,_ZNSt6vectorI6BiquadSaIS0_EED2Ev,comdat
	.weak	_ZNSt6vectorI6BiquadSaIS0_EED2Ev
	.p2align	2
	.type	_ZNSt6vectorI6BiquadSaIS0_EED2Ev,%function
_ZNSt6vectorI6BiquadSaIS0_EED2Ev:       @ @_ZNSt6vectorI6BiquadSaIS0_EED2Ev
.Lfunc_begin1:
	.loc	13 426 0 is_stmt 1      @ /usr/bin/../lib/gcc/arm-linux-gnueabihf/6.3.0/../../../../include/c++/6.3.0/bits/stl_vector.h:426:0
	.fnstart
	.cfi_startproc
@ BB#0:
	.save	{r4, r10, r11, lr}
	push	{r4, r10, r11, lr}
.Ltmp21:
	.cfi_def_cfa_offset 16
.Ltmp22:
	.cfi_offset lr, -4
.Ltmp23:
	.cfi_offset r11, -8
.Ltmp24:
	.cfi_offset r10, -12
.Ltmp25:
	.cfi_offset r4, -16
	.setfp	r11, sp, #8
	add	r11, sp, #8
.Ltmp26:
	.cfi_def_cfa r11, 8
	@DEBUG_VALUE: ~vector:this <- %R0
	mov	r4, r0
.Ltmp27:
	@DEBUG_VALUE: ~vector:this <- %R4
	.loc	13 160 37 prologue_end  @ /usr/bin/../lib/gcc/arm-linux-gnueabihf/6.3.0/../../../../include/c++/6.3.0/bits/stl_vector.h:160:37
	ldr	r0, [r4]
.Ltmp28:
	@DEBUG_VALUE: _M_deallocate:__p <- %R0
	@DEBUG_VALUE: deallocate:__p <- %R0
	@DEBUG_VALUE: deallocate:__p <- %R0
	.loc	13 177 6                @ /usr/bin/../lib/gcc/arm-linux-gnueabihf/6.3.0/../../../../include/c++/6.3.0/bits/stl_vector.h:177:6
	cmp	r0, #0
	beq	.LBB1_2
.Ltmp29:
@ BB#1:
	@DEBUG_VALUE: deallocate:__p <- %R0
	@DEBUG_VALUE: deallocate:__p <- %R0
	@DEBUG_VALUE: _M_deallocate:__p <- %R0
	@DEBUG_VALUE: ~vector:this <- %R4
	.loc	9 110 9                 @ /usr/bin/../lib/gcc/arm-linux-gnueabihf/6.3.0/../../../../include/c++/6.3.0/ext/new_allocator.h:110:9
	bl	_ZdlPv
.Ltmp30:
.LBB1_2:                                @ %_ZNSt12_Vector_baseI6BiquadSaIS0_EED2Ev.exit
	@DEBUG_VALUE: ~vector:this <- %R4
	.loc	13 427 33 discriminator 1 @ /usr/bin/../lib/gcc/arm-linux-gnueabihf/6.3.0/../../../../include/c++/6.3.0/bits/stl_vector.h:427:33
	mov	r0, r4
	pop	{r4, r10, r11, pc}
.Ltmp31:
.Lfunc_end1:
	.size	_ZNSt6vectorI6BiquadSaIS0_EED2Ev, .Lfunc_end1-_ZNSt6vectorI6BiquadSaIS0_EED2Ev
	.cfi_endproc
	.fnend

	.text
	.globl	_Z11guiCallbackRSt3mapINSt7__cxx1112basic_stringIwSt11char_traitsIwESaIwEEEP9JSONValueSt4lessIS5_ESaISt4pairIKS5_S7_EEEPv
	.p2align	2
	.type	_Z11guiCallbackRSt3mapINSt7__cxx1112basic_stringIwSt11char_traitsIwESaIwEEEP9JSONValueSt4lessIS5_ESaISt4pairIKS5_S7_EEEPv,%function
_Z11guiCallbackRSt3mapINSt7__cxx1112basic_stringIwSt11char_traitsIwESaIwEEEP9JSONValueSt4lessIS5_ESaISt4pairIKS5_S7_EEEPv: @ @_Z11guiCallbackRSt3mapINSt7__cxx1112basic_stringIwSt11char_traitsIwESaIwEEEP9JSONValueSt4lessIS5_ESaISt4pairIKS5_S7_EEEPv
.Lfunc_begin2:
	.loc	7 90 0                  @ /root/Bela/projects/filter_matching2/render.cpp:90:0
	.fnstart
	.cfi_startproc
@ BB#0:                                 @ %._crit_edge.i.i.i.i
	.save	{r4, r5, r6, r7, r8, r9, r10, r11, lr}
	push	{r4, r5, r6, r7, r8, r9, r10, r11, lr}
.Ltmp57:
	.cfi_def_cfa_offset 36
.Ltmp58:
	.cfi_offset lr, -4
.Ltmp59:
	.cfi_offset r11, -8
.Ltmp60:
	.cfi_offset r10, -12
.Ltmp61:
	.cfi_offset r9, -16
.Ltmp62:
	.cfi_offset r8, -20
.Ltmp63:
	.cfi_offset r7, -24
.Ltmp64:
	.cfi_offset r6, -28
.Ltmp65:
	.cfi_offset r5, -32
.Ltmp66:
	.cfi_offset r4, -36
	.setfp	r11, sp, #28
	add	r11, sp, #28
.Ltmp67:
	.cfi_def_cfa r11, 8
	.pad	#108
	sub	sp, sp, #108
	@DEBUG_VALUE: guiCallback:json <- %R0
	@DEBUG_VALUE: guiCallback: <- %R1
.Ltmp68:
	.loc	7 92 18 prologue_end    @ /root/Bela/projects/filter_matching2/render.cpp:92:18
	movw	r9, :lower16:.L_MergedGlobals
	.loc	7 92 16 is_stmt 0       @ /root/Bela/projects/filter_matching2/render.cpp:92:16
	movw	r7, :lower16:.L_MergedGlobals.4
	.loc	7 92 18                 @ /root/Bela/projects/filter_matching2/render.cpp:92:18
	movt	r9, :upper16:.L_MergedGlobals
	mov	r5, r0
.Ltmp69:
	@DEBUG_VALUE: guiCallback:json <- %R5
	.loc	7 92 16                 @ /root/Bela/projects/filter_matching2/render.cpp:92:16
	movt	r7, :upper16:.L_MergedGlobals.4
	.loc	7 92 18                 @ /root/Bela/projects/filter_matching2/render.cpp:92:18
	ldr	r0, [r9]
	.loc	7 92 16                 @ /root/Bela/projects/filter_matching2/render.cpp:92:16
	str	r0, [r7, #72]
	.loc	7 93 14 is_stmt 1       @ /root/Bela/projects/filter_matching2/render.cpp:93:14
	movw	r0, #34944
.Ltmp70:
	.loc	7 95 19                 @ /root/Bela/projects/filter_matching2/render.cpp:95:19
	movw	r1, #57344
.Ltmp71:
	.loc	7 93 14                 @ /root/Bela/projects/filter_matching2/render.cpp:93:14
	movt	r0, #16613
	str	r0, [r7, #68]
	mov	r0, #0
.Ltmp72:
	.loc	7 95 19                 @ /root/Bela/projects/filter_matching2/render.cpp:95:19
	movt	r1, #16501
.Ltmp73:
	.loc	7 93 14                 @ /root/Bela/projects/filter_matching2/render.cpp:93:14
	str	r0, [r7, #64]
.Ltmp74:
	.loc	7 95 19                 @ /root/Bela/projects/filter_matching2/render.cpp:95:19
	strd	r0, r1, [r7, #80]
	add	r8, sp, #8
.Ltmp75:
	@DEBUG_VALUE: _M_data:this <- %R8
	@DEBUG_VALUE: _M_length:this <- %R8
	@DEBUG_VALUE: _M_set_length:__n <- 6
	@DEBUG_VALUE: _M_set_length:this <- %R8
	@DEBUG_VALUE: _M_data:this <- %R8
	@DEBUG_VALUE: _M_construct<const char *>:__dnew <- 6
	@DEBUG_VALUE: _M_construct<const char *>:this <- %R8
	@DEBUG_VALUE: _M_construct_aux<const char *>:this <- %R8
	@DEBUG_VALUE: _M_construct<const char *>:this <- %R8
	@DEBUG_VALUE: _S_copy_chars:__p <- %R6
	@DEBUG_VALUE: _S_copy:__d <- %R6
	@DEBUG_VALUE: _M_local_data:this <- %R8
	@DEBUG_VALUE: basic_string:this <- %R8
	.loc	38 290 33               @ /usr/bin/../lib/gcc/arm-linux-gnueabihf/6.3.0/../../../../include/c++/6.3.0/bits/char_traits.h:290:33
	movw	r1, #26214
.Ltmp76:
	@DEBUG_VALUE: _S_copy:__n <- 6
	.loc	36 142 51               @ /usr/bin/../lib/gcc/arm-linux-gnueabihf/6.3.0/../../../../include/c++/6.3.0/bits/basic_string.h:142:51
	add	r6, r8, #8
.Ltmp77:
	.loc	36 110 25               @ /usr/bin/../lib/gcc/arm-linux-gnueabihf/6.3.0/../../../../include/c++/6.3.0/bits/basic_string.h:110:25
	str	r6, [sp, #8]
.Ltmp78:
	.loc	38 290 33               @ /usr/bin/../lib/gcc/arm-linux-gnueabihf/6.3.0/../../../../include/c++/6.3.0/bits/char_traits.h:290:33
	strh	r1, [sp, #20]
	movw	r1, #30051
	movt	r1, #28532
	str	r1, [sp, #16]
	mov	r1, #6
.Ltmp79:
	@DEBUG_VALUE: _M_length:__length <- 6
	.loc	36 132 26               @ /usr/bin/../lib/gcc/arm-linux-gnueabihf/6.3.0/../../../../include/c++/6.3.0/bits/basic_string.h:132:26
	str	r1, [sp, #12]
.Ltmp80:
	.loc	38 243 14               @ /usr/bin/../lib/gcc/arm-linux-gnueabihf/6.3.0/../../../../include/c++/6.3.0/bits/char_traits.h:243:14
	strb	r0, [sp, #22]
.Ltmp81:
	.loc	7 96 18 discriminator 1 @ /root/Bela/projects/filter_matching2/render.cpp:96:18
.Ltmp32:
	mov	r0, r5
	mov	r1, r8
	bl	_ZL16retrieveAsNumberRSt3mapINSt7__cxx1112basic_stringIwSt11char_traitsIwESaIwEEEP9JSONValueSt4lessIS5_ESaISt4pairIKS5_S7_EEERKNS1_IcS2_IcESaIcEEE
.Ltmp33:
.Ltmp82:
@ BB#1:
	@DEBUG_VALUE: basic_string:this <- %R8
	@DEBUG_VALUE: _M_local_data:this <- %R8
	@DEBUG_VALUE: _M_construct<const char *>:this <- %R8
	@DEBUG_VALUE: _M_construct_aux<const char *>:this <- %R8
	@DEBUG_VALUE: _M_construct<const char *>:this <- %R8
	@DEBUG_VALUE: _M_data:this <- %R8
	@DEBUG_VALUE: _M_set_length:this <- %R8
	@DEBUG_VALUE: _M_length:this <- %R8
	@DEBUG_VALUE: _M_data:this <- %R8
	@DEBUG_VALUE: guiCallback:json <- %R5
	.loc	7 96 18 is_stmt 0 discriminator 2 @ /root/Bela/projects/filter_matching2/render.cpp:96:18
	vcvt.f32.f64	s0, d0
.Ltmp83:
	.loc	36 136 28 is_stmt 1     @ /usr/bin/../lib/gcc/arm-linux-gnueabihf/6.3.0/../../../../include/c++/6.3.0/bits/basic_string.h:136:28
	ldr	r0, [sp, #8]
.Ltmp84:
	@DEBUG_VALUE: deallocate:__p <- %R0
	@DEBUG_VALUE: deallocate:__p <- %R0
	.loc	36 180 6                @ /usr/bin/../lib/gcc/arm-linux-gnueabihf/6.3.0/../../../../include/c++/6.3.0/bits/basic_string.h:180:6
	cmp	r0, r6
.Ltmp85:
	.loc	7 96 16 discriminator 2 @ /root/Bela/projects/filter_matching2/render.cpp:96:16
	vstr	s0, [r9, #4]
	beq	.LBB2_3
.Ltmp86:
@ BB#2:
	@DEBUG_VALUE: deallocate:__p <- %R0
	@DEBUG_VALUE: deallocate:__p <- %R0
	@DEBUG_VALUE: basic_string:this <- %R8
	@DEBUG_VALUE: _M_local_data:this <- %R8
	@DEBUG_VALUE: _M_construct<const char *>:this <- %R8
	@DEBUG_VALUE: _M_construct_aux<const char *>:this <- %R8
	@DEBUG_VALUE: _M_construct<const char *>:this <- %R8
	@DEBUG_VALUE: _M_data:this <- %R8
	@DEBUG_VALUE: _M_set_length:this <- %R8
	@DEBUG_VALUE: _M_length:this <- %R8
	@DEBUG_VALUE: _M_data:this <- %R8
	@DEBUG_VALUE: guiCallback:json <- %R5
	.loc	9 110 9                 @ /usr/bin/../lib/gcc/arm-linux-gnueabihf/6.3.0/../../../../include/c++/6.3.0/ext/new_allocator.h:110:9
	bl	_ZdlPv
.Ltmp87:
.LBB2_3:                                @ %._crit_edge.i.i.i.i48
	@DEBUG_VALUE: basic_string:this <- %R8
	@DEBUG_VALUE: _M_local_data:this <- %R8
	@DEBUG_VALUE: _M_construct<const char *>:this <- %R8
	@DEBUG_VALUE: _M_construct_aux<const char *>:this <- %R8
	@DEBUG_VALUE: _M_construct<const char *>:this <- %R8
	@DEBUG_VALUE: _M_data:this <- %R8
	@DEBUG_VALUE: _M_set_length:this <- %R8
	@DEBUG_VALUE: _M_length:this <- %R8
	@DEBUG_VALUE: _M_data:this <- %R8
	@DEBUG_VALUE: guiCallback:json <- %R5
	@DEBUG_VALUE: basic_string:this <- %R8
	@DEBUG_VALUE: _M_local_data:this <- %R8
	@DEBUG_VALUE: assign:__c1 <- %R6
	@DEBUG_VALUE: _S_copy:__d <- %R6
	@DEBUG_VALUE: _S_copy_chars:__p <- %R6
	@DEBUG_VALUE: _M_construct<const char *>:this <- %R8
	@DEBUG_VALUE: _M_construct_aux<const char *>:this <- %R8
	@DEBUG_VALUE: _M_construct<const char *>:this <- %R8
	@DEBUG_VALUE: _M_construct<const char *>:__dnew <- 1
	@DEBUG_VALUE: _M_data:this <- %R8
	@DEBUG_VALUE: _M_set_length:this <- %R8
	@DEBUG_VALUE: _M_set_length:__n <- 1
	@DEBUG_VALUE: _M_length:this <- %R8
	@DEBUG_VALUE: _M_data:this <- %R8
	.loc	38 243 14               @ /usr/bin/../lib/gcc/arm-linux-gnueabihf/6.3.0/../../../../include/c++/6.3.0/bits/char_traits.h:243:14
	mov	r0, #113
.Ltmp88:
	@DEBUG_VALUE: _S_copy:__n <- 1
	.loc	36 110 25               @ /usr/bin/../lib/gcc/arm-linux-gnueabihf/6.3.0/../../../../include/c++/6.3.0/bits/basic_string.h:110:25
	str	r6, [sp, #8]
.Ltmp89:
	.loc	38 243 14               @ /usr/bin/../lib/gcc/arm-linux-gnueabihf/6.3.0/../../../../include/c++/6.3.0/bits/char_traits.h:243:14
	strb	r0, [sp, #16]
	mov	r0, #1
.Ltmp90:
	@DEBUG_VALUE: _M_length:__length <- 1
	.loc	36 132 26               @ /usr/bin/../lib/gcc/arm-linux-gnueabihf/6.3.0/../../../../include/c++/6.3.0/bits/basic_string.h:132:26
	str	r0, [sp, #12]
.Ltmp91:
	.loc	38 243 14               @ /usr/bin/../lib/gcc/arm-linux-gnueabihf/6.3.0/../../../../include/c++/6.3.0/bits/char_traits.h:243:14
	mov	r0, #0
	strb	r0, [sp, #17]
.Ltmp92:
	.loc	7 99 16 discriminator 1 @ /root/Bela/projects/filter_matching2/render.cpp:99:16
.Ltmp35:
	mov	r0, r5
	mov	r1, r8
	bl	_ZL16retrieveAsNumberRSt3mapINSt7__cxx1112basic_stringIwSt11char_traitsIwESaIwEEEP9JSONValueSt4lessIS5_ESaISt4pairIKS5_S7_EEERKNS1_IcS2_IcESaIcEEE
.Ltmp36:
.Ltmp93:
@ BB#4:
	@DEBUG_VALUE: _M_data:this <- %R8
	@DEBUG_VALUE: _M_length:this <- %R8
	@DEBUG_VALUE: _M_set_length:this <- %R8
	@DEBUG_VALUE: _M_data:this <- %R8
	@DEBUG_VALUE: _M_construct<const char *>:this <- %R8
	@DEBUG_VALUE: _M_construct_aux<const char *>:this <- %R8
	@DEBUG_VALUE: _M_construct<const char *>:this <- %R8
	@DEBUG_VALUE: _S_copy_chars:__p <- %R6
	@DEBUG_VALUE: _S_copy:__d <- %R6
	@DEBUG_VALUE: assign:__c1 <- %R6
	@DEBUG_VALUE: _M_local_data:this <- %R8
	@DEBUG_VALUE: basic_string:this <- %R8
	@DEBUG_VALUE: basic_string:this <- %R8
	@DEBUG_VALUE: _M_local_data:this <- %R8
	@DEBUG_VALUE: _M_construct<const char *>:this <- %R8
	@DEBUG_VALUE: _M_construct_aux<const char *>:this <- %R8
	@DEBUG_VALUE: _M_construct<const char *>:this <- %R8
	@DEBUG_VALUE: _M_data:this <- %R8
	@DEBUG_VALUE: _M_set_length:this <- %R8
	@DEBUG_VALUE: _M_length:this <- %R8
	@DEBUG_VALUE: _M_data:this <- %R8
	@DEBUG_VALUE: guiCallback:json <- %R5
	.loc	36 136 28               @ /usr/bin/../lib/gcc/arm-linux-gnueabihf/6.3.0/../../../../include/c++/6.3.0/bits/basic_string.h:136:28
	ldr	r0, [sp, #8]
.Ltmp94:
	@DEBUG_VALUE: deallocate:__p <- %R0
	@DEBUG_VALUE: deallocate:__p <- %R0
	.loc	7 99 14 discriminator 2 @ /root/Bela/projects/filter_matching2/render.cpp:99:14
	vstr	d0, [r7, #88]
.Ltmp95:
	.loc	36 180 6                @ /usr/bin/../lib/gcc/arm-linux-gnueabihf/6.3.0/../../../../include/c++/6.3.0/bits/basic_string.h:180:6
	cmp	r0, r6
	beq	.LBB2_6
.Ltmp96:
@ BB#5:
	@DEBUG_VALUE: deallocate:__p <- %R0
	@DEBUG_VALUE: deallocate:__p <- %R0
	@DEBUG_VALUE: _M_data:this <- %R8
	@DEBUG_VALUE: _M_length:this <- %R8
	@DEBUG_VALUE: _M_set_length:this <- %R8
	@DEBUG_VALUE: _M_data:this <- %R8
	@DEBUG_VALUE: _M_construct<const char *>:this <- %R8
	@DEBUG_VALUE: _M_construct_aux<const char *>:this <- %R8
	@DEBUG_VALUE: _M_construct<const char *>:this <- %R8
	@DEBUG_VALUE: _S_copy_chars:__p <- %R6
	@DEBUG_VALUE: _S_copy:__d <- %R6
	@DEBUG_VALUE: assign:__c1 <- %R6
	@DEBUG_VALUE: _M_local_data:this <- %R8
	@DEBUG_VALUE: basic_string:this <- %R8
	@DEBUG_VALUE: basic_string:this <- %R8
	@DEBUG_VALUE: _M_local_data:this <- %R8
	@DEBUG_VALUE: _M_construct<const char *>:this <- %R8
	@DEBUG_VALUE: _M_construct_aux<const char *>:this <- %R8
	@DEBUG_VALUE: _M_construct<const char *>:this <- %R8
	@DEBUG_VALUE: _M_data:this <- %R8
	@DEBUG_VALUE: _M_set_length:this <- %R8
	@DEBUG_VALUE: _M_length:this <- %R8
	@DEBUG_VALUE: _M_data:this <- %R8
	@DEBUG_VALUE: guiCallback:json <- %R5
	.loc	9 110 9                 @ /usr/bin/../lib/gcc/arm-linux-gnueabihf/6.3.0/../../../../include/c++/6.3.0/ext/new_allocator.h:110:9
	bl	_ZdlPv
.Ltmp97:
.LBB2_6:                                @ %._crit_edge.i.i.i.i58
	@DEBUG_VALUE: _M_data:this <- %R8
	@DEBUG_VALUE: _M_length:this <- %R8
	@DEBUG_VALUE: _M_set_length:this <- %R8
	@DEBUG_VALUE: _M_data:this <- %R8
	@DEBUG_VALUE: _M_construct<const char *>:this <- %R8
	@DEBUG_VALUE: _M_construct_aux<const char *>:this <- %R8
	@DEBUG_VALUE: _M_construct<const char *>:this <- %R8
	@DEBUG_VALUE: _S_copy_chars:__p <- %R6
	@DEBUG_VALUE: _S_copy:__d <- %R6
	@DEBUG_VALUE: assign:__c1 <- %R6
	@DEBUG_VALUE: _M_local_data:this <- %R8
	@DEBUG_VALUE: basic_string:this <- %R8
	@DEBUG_VALUE: basic_string:this <- %R8
	@DEBUG_VALUE: _M_local_data:this <- %R8
	@DEBUG_VALUE: _M_construct<const char *>:this <- %R8
	@DEBUG_VALUE: _M_construct_aux<const char *>:this <- %R8
	@DEBUG_VALUE: _M_construct<const char *>:this <- %R8
	@DEBUG_VALUE: _M_data:this <- %R8
	@DEBUG_VALUE: _M_set_length:this <- %R8
	@DEBUG_VALUE: _M_length:this <- %R8
	@DEBUG_VALUE: _M_data:this <- %R8
	@DEBUG_VALUE: guiCallback:json <- %R5
	@DEBUG_VALUE: basic_string:this <- %R8
	@DEBUG_VALUE: _M_local_data:this <- %R8
	@DEBUG_VALUE: _S_copy:__d <- %R6
	@DEBUG_VALUE: _S_copy_chars:__p <- %R6
	@DEBUG_VALUE: _M_construct<const char *>:this <- %R8
	@DEBUG_VALUE: _M_construct_aux<const char *>:this <- %R8
	@DEBUG_VALUE: _M_construct<const char *>:this <- %R8
	@DEBUG_VALUE: _M_construct<const char *>:__dnew <- 10
	@DEBUG_VALUE: _M_data:this <- %R8
	@DEBUG_VALUE: _M_set_length:this <- %R8
	@DEBUG_VALUE: _M_set_length:__n <- 10
	@DEBUG_VALUE: _M_length:this <- %R8
	@DEBUG_VALUE: _M_data:this <- %R8
	.loc	38 290 33               @ /usr/bin/../lib/gcc/arm-linux-gnueabihf/6.3.0/../../../../include/c++/6.3.0/bits/char_traits.h:290:33
	movw	r0, :lower16:.L.str.10
.Ltmp98:
	.loc	36 110 25               @ /usr/bin/../lib/gcc/arm-linux-gnueabihf/6.3.0/../../../../include/c++/6.3.0/bits/basic_string.h:110:25
	str	r6, [sp, #8]
.Ltmp99:
	@DEBUG_VALUE: _S_copy:__n <- 10
	.loc	38 290 33               @ /usr/bin/../lib/gcc/arm-linux-gnueabihf/6.3.0/../../../../include/c++/6.3.0/bits/char_traits.h:290:33
	movt	r0, :upper16:.L.str.10
	vldr	d16, [r0]
	movw	r0, #25156
	strh	r0, [sp, #24]
	mov	r0, #10
.Ltmp100:
	@DEBUG_VALUE: _M_length:__length <- 10
	vstr	d16, [sp, #16]
.Ltmp101:
	.loc	36 132 26               @ /usr/bin/../lib/gcc/arm-linux-gnueabihf/6.3.0/../../../../include/c++/6.3.0/bits/basic_string.h:132:26
	str	r0, [sp, #12]
.Ltmp102:
	.loc	38 243 14               @ /usr/bin/../lib/gcc/arm-linux-gnueabihf/6.3.0/../../../../include/c++/6.3.0/bits/char_traits.h:243:14
	mov	r0, #0
	strb	r0, [sp, #26]
.Ltmp103:
	.loc	7 102 25 discriminator 1 @ /root/Bela/projects/filter_matching2/render.cpp:102:25
.Ltmp38:
	mov	r0, r5
	mov	r1, r8
	bl	_ZL16retrieveAsNumberRSt3mapINSt7__cxx1112basic_stringIwSt11char_traitsIwESaIwEEEP9JSONValueSt4lessIS5_ESaISt4pairIKS5_S7_EEERKNS1_IcS2_IcESaIcEEE
.Ltmp39:
.Ltmp104:
	@DEBUG_VALUE: _S_copy:__s <- %R0
@ BB#7:
	@DEBUG_VALUE: _S_copy:__s <- %R0
	@DEBUG_VALUE: _M_data:this <- %R8
	@DEBUG_VALUE: _M_length:this <- %R8
	@DEBUG_VALUE: _M_set_length:this <- %R8
	@DEBUG_VALUE: _M_data:this <- %R8
	@DEBUG_VALUE: _M_construct<const char *>:this <- %R8
	@DEBUG_VALUE: _M_construct_aux<const char *>:this <- %R8
	@DEBUG_VALUE: _M_construct<const char *>:this <- %R8
	@DEBUG_VALUE: _S_copy_chars:__p <- %R6
	@DEBUG_VALUE: _S_copy:__d <- %R6
	@DEBUG_VALUE: _M_local_data:this <- %R8
	@DEBUG_VALUE: basic_string:this <- %R8
	@DEBUG_VALUE: _M_data:this <- %R8
	@DEBUG_VALUE: _M_length:this <- %R8
	@DEBUG_VALUE: _M_set_length:this <- %R8
	@DEBUG_VALUE: _M_data:this <- %R8
	@DEBUG_VALUE: _M_construct<const char *>:this <- %R8
	@DEBUG_VALUE: _M_construct_aux<const char *>:this <- %R8
	@DEBUG_VALUE: _M_construct<const char *>:this <- %R8
	@DEBUG_VALUE: _S_copy_chars:__p <- %R6
	@DEBUG_VALUE: _S_copy:__d <- %R6
	@DEBUG_VALUE: assign:__c1 <- %R6
	@DEBUG_VALUE: _M_local_data:this <- %R8
	@DEBUG_VALUE: basic_string:this <- %R8
	@DEBUG_VALUE: basic_string:this <- %R8
	@DEBUG_VALUE: _M_local_data:this <- %R8
	@DEBUG_VALUE: _M_construct<const char *>:this <- %R8
	@DEBUG_VALUE: _M_construct_aux<const char *>:this <- %R8
	@DEBUG_VALUE: _M_construct<const char *>:this <- %R8
	@DEBUG_VALUE: _M_data:this <- %R8
	@DEBUG_VALUE: _M_set_length:this <- %R8
	@DEBUG_VALUE: _M_length:this <- %R8
	@DEBUG_VALUE: _M_data:this <- %R8
	@DEBUG_VALUE: guiCallback:json <- %R5
	.loc	36 136 28               @ /usr/bin/../lib/gcc/arm-linux-gnueabihf/6.3.0/../../../../include/c++/6.3.0/bits/basic_string.h:136:28
	ldr	r0, [sp, #8]
.Ltmp105:
	@DEBUG_VALUE: deallocate:__p <- %R0
	@DEBUG_VALUE: deallocate:__p <- %R0
	.loc	7 102 23 discriminator 2 @ /root/Bela/projects/filter_matching2/render.cpp:102:23
	vstr	d0, [r7, #96]
.Ltmp106:
	.loc	36 180 6                @ /usr/bin/../lib/gcc/arm-linux-gnueabihf/6.3.0/../../../../include/c++/6.3.0/bits/basic_string.h:180:6
	cmp	r0, r6
	beq	.LBB2_9
.Ltmp107:
@ BB#8:
	@DEBUG_VALUE: deallocate:__p <- %R0
	@DEBUG_VALUE: deallocate:__p <- %R0
	@DEBUG_VALUE: _M_data:this <- %R8
	@DEBUG_VALUE: _M_length:this <- %R8
	@DEBUG_VALUE: _M_set_length:this <- %R8
	@DEBUG_VALUE: _M_data:this <- %R8
	@DEBUG_VALUE: _M_construct<const char *>:this <- %R8
	@DEBUG_VALUE: _M_construct_aux<const char *>:this <- %R8
	@DEBUG_VALUE: _M_construct<const char *>:this <- %R8
	@DEBUG_VALUE: _S_copy_chars:__p <- %R6
	@DEBUG_VALUE: _S_copy:__d <- %R6
	@DEBUG_VALUE: _M_local_data:this <- %R8
	@DEBUG_VALUE: basic_string:this <- %R8
	@DEBUG_VALUE: _M_data:this <- %R8
	@DEBUG_VALUE: _M_length:this <- %R8
	@DEBUG_VALUE: _M_set_length:this <- %R8
	@DEBUG_VALUE: _M_data:this <- %R8
	@DEBUG_VALUE: _M_construct<const char *>:this <- %R8
	@DEBUG_VALUE: _M_construct_aux<const char *>:this <- %R8
	@DEBUG_VALUE: _M_construct<const char *>:this <- %R8
	@DEBUG_VALUE: _S_copy_chars:__p <- %R6
	@DEBUG_VALUE: _S_copy:__d <- %R6
	@DEBUG_VALUE: assign:__c1 <- %R6
	@DEBUG_VALUE: _M_local_data:this <- %R8
	@DEBUG_VALUE: basic_string:this <- %R8
	@DEBUG_VALUE: basic_string:this <- %R8
	@DEBUG_VALUE: _M_local_data:this <- %R8
	@DEBUG_VALUE: _M_construct<const char *>:this <- %R8
	@DEBUG_VALUE: _M_construct_aux<const char *>:this <- %R8
	@DEBUG_VALUE: _M_construct<const char *>:this <- %R8
	@DEBUG_VALUE: _M_data:this <- %R8
	@DEBUG_VALUE: _M_set_length:this <- %R8
	@DEBUG_VALUE: _M_length:this <- %R8
	@DEBUG_VALUE: _M_data:this <- %R8
	@DEBUG_VALUE: guiCallback:json <- %R5
	.loc	9 110 9                 @ /usr/bin/../lib/gcc/arm-linux-gnueabihf/6.3.0/../../../../include/c++/6.3.0/ext/new_allocator.h:110:9
	bl	_ZdlPv
.Ltmp108:
.LBB2_9:                                @ %._crit_edge.i.i.i.i73
	@DEBUG_VALUE: _M_data:this <- %R8
	@DEBUG_VALUE: _M_length:this <- %R8
	@DEBUG_VALUE: _M_set_length:this <- %R8
	@DEBUG_VALUE: _M_data:this <- %R8
	@DEBUG_VALUE: _M_construct<const char *>:this <- %R8
	@DEBUG_VALUE: _M_construct_aux<const char *>:this <- %R8
	@DEBUG_VALUE: _M_construct<const char *>:this <- %R8
	@DEBUG_VALUE: _S_copy_chars:__p <- %R6
	@DEBUG_VALUE: _S_copy:__d <- %R6
	@DEBUG_VALUE: _M_local_data:this <- %R8
	@DEBUG_VALUE: basic_string:this <- %R8
	@DEBUG_VALUE: _M_data:this <- %R8
	@DEBUG_VALUE: _M_length:this <- %R8
	@DEBUG_VALUE: _M_set_length:this <- %R8
	@DEBUG_VALUE: _M_data:this <- %R8
	@DEBUG_VALUE: _M_construct<const char *>:this <- %R8
	@DEBUG_VALUE: _M_construct_aux<const char *>:this <- %R8
	@DEBUG_VALUE: _M_construct<const char *>:this <- %R8
	@DEBUG_VALUE: _S_copy_chars:__p <- %R6
	@DEBUG_VALUE: _S_copy:__d <- %R6
	@DEBUG_VALUE: assign:__c1 <- %R6
	@DEBUG_VALUE: _M_local_data:this <- %R8
	@DEBUG_VALUE: basic_string:this <- %R8
	@DEBUG_VALUE: basic_string:this <- %R8
	@DEBUG_VALUE: _M_local_data:this <- %R8
	@DEBUG_VALUE: _M_construct<const char *>:this <- %R8
	@DEBUG_VALUE: _M_construct_aux<const char *>:this <- %R8
	@DEBUG_VALUE: _M_construct<const char *>:this <- %R8
	@DEBUG_VALUE: _M_data:this <- %R8
	@DEBUG_VALUE: _M_set_length:this <- %R8
	@DEBUG_VALUE: _M_length:this <- %R8
	@DEBUG_VALUE: _M_data:this <- %R8
	@DEBUG_VALUE: guiCallback:json <- %R5
	@DEBUG_VALUE: basic_string:this <- %R8
	@DEBUG_VALUE: _M_local_data:this <- %R8
	@DEBUG_VALUE: _S_copy:__d <- %R6
	@DEBUG_VALUE: _S_copy_chars:__p <- %R6
	@DEBUG_VALUE: _M_construct<const char *>:this <- %R8
	@DEBUG_VALUE: _M_construct_aux<const char *>:this <- %R8
	@DEBUG_VALUE: _M_construct<const char *>:this <- %R8
	@DEBUG_VALUE: _M_construct<const char *>:__dnew <- 7
	@DEBUG_VALUE: _M_data:this <- %R8
	@DEBUG_VALUE: _M_set_length:this <- %R8
	@DEBUG_VALUE: _M_set_length:__n <- 7
	@DEBUG_VALUE: _M_length:this <- %R8
	@DEBUG_VALUE: _M_data:this <- %R8
	.loc	38 290 33               @ /usr/bin/../lib/gcc/arm-linux-gnueabihf/6.3.0/../../../../include/c++/6.3.0/bits/char_traits.h:290:33
	mov	r0, #113
.Ltmp109:
	@DEBUG_VALUE: _S_copy:__n <- 7
	.loc	36 110 25               @ /usr/bin/../lib/gcc/arm-linux-gnueabihf/6.3.0/../../../../include/c++/6.3.0/bits/basic_string.h:110:25
	str	r6, [sp, #8]
.Ltmp110:
	.loc	38 290 33               @ /usr/bin/../lib/gcc/arm-linux-gnueabihf/6.3.0/../../../../include/c++/6.3.0/bits/char_traits.h:290:33
	strb	r0, [sp, #22]
	movw	r0, #25970
	strh	r0, [sp, #20]
	movw	r0, #29551
	movt	r0, #18019
	str	r0, [sp, #16]
	mov	r0, #7
.Ltmp111:
	@DEBUG_VALUE: _M_length:__length <- 7
	.loc	36 132 26               @ /usr/bin/../lib/gcc/arm-linux-gnueabihf/6.3.0/../../../../include/c++/6.3.0/bits/basic_string.h:132:26
	str	r0, [sp, #12]
.Ltmp112:
	.loc	38 243 14               @ /usr/bin/../lib/gcc/arm-linux-gnueabihf/6.3.0/../../../../include/c++/6.3.0/bits/char_traits.h:243:14
	mov	r0, #0
	strb	r0, [sp, #23]
.Ltmp113:
	.loc	7 105 14 discriminator 1 @ /root/Bela/projects/filter_matching2/render.cpp:105:14
.Ltmp41:
	mov	r0, r5
	mov	r1, r8
	bl	_ZL16retrieveAsNumberRSt3mapINSt7__cxx1112basic_stringIwSt11char_traitsIwESaIwEEEP9JSONValueSt4lessIS5_ESaISt4pairIKS5_S7_EEERKNS1_IcS2_IcESaIcEEE
.Ltmp42:
.Ltmp114:
@ BB#10:
	@DEBUG_VALUE: _M_data:this <- %R8
	@DEBUG_VALUE: _M_length:this <- %R8
	@DEBUG_VALUE: _M_set_length:this <- %R8
	@DEBUG_VALUE: _M_data:this <- %R8
	@DEBUG_VALUE: _M_construct<const char *>:this <- %R8
	@DEBUG_VALUE: _M_construct_aux<const char *>:this <- %R8
	@DEBUG_VALUE: _M_construct<const char *>:this <- %R8
	@DEBUG_VALUE: _S_copy_chars:__p <- %R6
	@DEBUG_VALUE: _S_copy:__d <- %R6
	@DEBUG_VALUE: _M_local_data:this <- %R8
	@DEBUG_VALUE: basic_string:this <- %R8
	@DEBUG_VALUE: _M_data:this <- %R8
	@DEBUG_VALUE: _M_length:this <- %R8
	@DEBUG_VALUE: _M_set_length:this <- %R8
	@DEBUG_VALUE: _M_data:this <- %R8
	@DEBUG_VALUE: _M_construct<const char *>:this <- %R8
	@DEBUG_VALUE: _M_construct_aux<const char *>:this <- %R8
	@DEBUG_VALUE: _M_construct<const char *>:this <- %R8
	@DEBUG_VALUE: _S_copy_chars:__p <- %R6
	@DEBUG_VALUE: _S_copy:__d <- %R6
	@DEBUG_VALUE: _M_local_data:this <- %R8
	@DEBUG_VALUE: basic_string:this <- %R8
	@DEBUG_VALUE: _M_data:this <- %R8
	@DEBUG_VALUE: _M_length:this <- %R8
	@DEBUG_VALUE: _M_set_length:this <- %R8
	@DEBUG_VALUE: _M_data:this <- %R8
	@DEBUG_VALUE: _M_construct<const char *>:this <- %R8
	@DEBUG_VALUE: _M_construct_aux<const char *>:this <- %R8
	@DEBUG_VALUE: _M_construct<const char *>:this <- %R8
	@DEBUG_VALUE: _S_copy_chars:__p <- %R6
	@DEBUG_VALUE: _S_copy:__d <- %R6
	@DEBUG_VALUE: assign:__c1 <- %R6
	@DEBUG_VALUE: _M_local_data:this <- %R8
	@DEBUG_VALUE: basic_string:this <- %R8
	@DEBUG_VALUE: basic_string:this <- %R8
	@DEBUG_VALUE: _M_local_data:this <- %R8
	@DEBUG_VALUE: _M_construct<const char *>:this <- %R8
	@DEBUG_VALUE: _M_construct_aux<const char *>:this <- %R8
	@DEBUG_VALUE: _M_construct<const char *>:this <- %R8
	@DEBUG_VALUE: _M_data:this <- %R8
	@DEBUG_VALUE: _M_set_length:this <- %R8
	@DEBUG_VALUE: _M_length:this <- %R8
	@DEBUG_VALUE: _M_data:this <- %R8
	@DEBUG_VALUE: guiCallback:json <- %R5
	.loc	7 105 14 is_stmt 0 discriminator 2 @ /root/Bela/projects/filter_matching2/render.cpp:105:14
	vcvt.f32.f64	s0, d0
.Ltmp115:
	.loc	36 136 28 is_stmt 1     @ /usr/bin/../lib/gcc/arm-linux-gnueabihf/6.3.0/../../../../include/c++/6.3.0/bits/basic_string.h:136:28
	ldr	r0, [sp, #8]
.Ltmp116:
	@DEBUG_VALUE: deallocate:__p <- %R0
	@DEBUG_VALUE: deallocate:__p <- %R0
	.loc	36 180 6                @ /usr/bin/../lib/gcc/arm-linux-gnueabihf/6.3.0/../../../../include/c++/6.3.0/bits/basic_string.h:180:6
	cmp	r0, r6
.Ltmp117:
	.loc	7 105 12 discriminator 2 @ /root/Bela/projects/filter_matching2/render.cpp:105:12
	vstr	s0, [r9, #8]
	beq	.LBB2_12
.Ltmp118:
@ BB#11:
	@DEBUG_VALUE: deallocate:__p <- %R0
	@DEBUG_VALUE: deallocate:__p <- %R0
	@DEBUG_VALUE: _M_data:this <- %R8
	@DEBUG_VALUE: _M_length:this <- %R8
	@DEBUG_VALUE: _M_set_length:this <- %R8
	@DEBUG_VALUE: _M_data:this <- %R8
	@DEBUG_VALUE: _M_construct<const char *>:this <- %R8
	@DEBUG_VALUE: _M_construct_aux<const char *>:this <- %R8
	@DEBUG_VALUE: _M_construct<const char *>:this <- %R8
	@DEBUG_VALUE: _S_copy_chars:__p <- %R6
	@DEBUG_VALUE: _S_copy:__d <- %R6
	@DEBUG_VALUE: _M_local_data:this <- %R8
	@DEBUG_VALUE: basic_string:this <- %R8
	@DEBUG_VALUE: _M_data:this <- %R8
	@DEBUG_VALUE: _M_length:this <- %R8
	@DEBUG_VALUE: _M_set_length:this <- %R8
	@DEBUG_VALUE: _M_data:this <- %R8
	@DEBUG_VALUE: _M_construct<const char *>:this <- %R8
	@DEBUG_VALUE: _M_construct_aux<const char *>:this <- %R8
	@DEBUG_VALUE: _M_construct<const char *>:this <- %R8
	@DEBUG_VALUE: _S_copy_chars:__p <- %R6
	@DEBUG_VALUE: _S_copy:__d <- %R6
	@DEBUG_VALUE: _M_local_data:this <- %R8
	@DEBUG_VALUE: basic_string:this <- %R8
	@DEBUG_VALUE: _M_data:this <- %R8
	@DEBUG_VALUE: _M_length:this <- %R8
	@DEBUG_VALUE: _M_set_length:this <- %R8
	@DEBUG_VALUE: _M_data:this <- %R8
	@DEBUG_VALUE: _M_construct<const char *>:this <- %R8
	@DEBUG_VALUE: _M_construct_aux<const char *>:this <- %R8
	@DEBUG_VALUE: _M_construct<const char *>:this <- %R8
	@DEBUG_VALUE: _S_copy_chars:__p <- %R6
	@DEBUG_VALUE: _S_copy:__d <- %R6
	@DEBUG_VALUE: assign:__c1 <- %R6
	@DEBUG_VALUE: _M_local_data:this <- %R8
	@DEBUG_VALUE: basic_string:this <- %R8
	@DEBUG_VALUE: basic_string:this <- %R8
	@DEBUG_VALUE: _M_local_data:this <- %R8
	@DEBUG_VALUE: _M_construct<const char *>:this <- %R8
	@DEBUG_VALUE: _M_construct_aux<const char *>:this <- %R8
	@DEBUG_VALUE: _M_construct<const char *>:this <- %R8
	@DEBUG_VALUE: _M_data:this <- %R8
	@DEBUG_VALUE: _M_set_length:this <- %R8
	@DEBUG_VALUE: _M_length:this <- %R8
	@DEBUG_VALUE: _M_data:this <- %R8
	@DEBUG_VALUE: guiCallback:json <- %R5
	.loc	9 110 9                 @ /usr/bin/../lib/gcc/arm-linux-gnueabihf/6.3.0/../../../../include/c++/6.3.0/ext/new_allocator.h:110:9
	bl	_ZdlPv
.Ltmp119:
.LBB2_12:
	@DEBUG_VALUE: _M_data:this <- %R8
	@DEBUG_VALUE: _M_length:this <- %R8
	@DEBUG_VALUE: _M_set_length:this <- %R8
	@DEBUG_VALUE: _M_data:this <- %R8
	@DEBUG_VALUE: _M_construct<const char *>:this <- %R8
	@DEBUG_VALUE: _M_construct_aux<const char *>:this <- %R8
	@DEBUG_VALUE: _M_construct<const char *>:this <- %R8
	@DEBUG_VALUE: _S_copy_chars:__p <- %R6
	@DEBUG_VALUE: _S_copy:__d <- %R6
	@DEBUG_VALUE: _M_local_data:this <- %R8
	@DEBUG_VALUE: basic_string:this <- %R8
	@DEBUG_VALUE: _M_data:this <- %R8
	@DEBUG_VALUE: _M_length:this <- %R8
	@DEBUG_VALUE: _M_set_length:this <- %R8
	@DEBUG_VALUE: _M_data:this <- %R8
	@DEBUG_VALUE: _M_construct<const char *>:this <- %R8
	@DEBUG_VALUE: _M_construct_aux<const char *>:this <- %R8
	@DEBUG_VALUE: _M_construct<const char *>:this <- %R8
	@DEBUG_VALUE: _S_copy_chars:__p <- %R6
	@DEBUG_VALUE: _S_copy:__d <- %R6
	@DEBUG_VALUE: _M_local_data:this <- %R8
	@DEBUG_VALUE: basic_string:this <- %R8
	@DEBUG_VALUE: _M_data:this <- %R8
	@DEBUG_VALUE: _M_length:this <- %R8
	@DEBUG_VALUE: _M_set_length:this <- %R8
	@DEBUG_VALUE: _M_data:this <- %R8
	@DEBUG_VALUE: _M_construct<const char *>:this <- %R8
	@DEBUG_VALUE: _M_construct_aux<const char *>:this <- %R8
	@DEBUG_VALUE: _M_construct<const char *>:this <- %R8
	@DEBUG_VALUE: _S_copy_chars:__p <- %R6
	@DEBUG_VALUE: _S_copy:__d <- %R6
	@DEBUG_VALUE: assign:__c1 <- %R6
	@DEBUG_VALUE: _M_local_data:this <- %R8
	@DEBUG_VALUE: basic_string:this <- %R8
	@DEBUG_VALUE: basic_string:this <- %R8
	@DEBUG_VALUE: _M_local_data:this <- %R8
	@DEBUG_VALUE: _M_construct<const char *>:this <- %R8
	@DEBUG_VALUE: _M_construct_aux<const char *>:this <- %R8
	@DEBUG_VALUE: _M_construct<const char *>:this <- %R8
	@DEBUG_VALUE: _M_data:this <- %R8
	@DEBUG_VALUE: _M_set_length:this <- %R8
	@DEBUG_VALUE: _M_length:this <- %R8
	@DEBUG_VALUE: _M_data:this <- %R8
	@DEBUG_VALUE: writeNonRt<const BiquadCoeff::Settings>:count <- 1
	@DEBUG_VALUE: writeNonRt<const BiquadCoeff::Settings>:size <- 40
	.loc	3 102 9                 @ ./libraries/Pipe/Pipe.h:102:9
	movw	r0, :lower16:gPipe
	add	r1, r7, #64
.Ltmp120:
	@DEBUG_VALUE: writeNonRt<const BiquadCoeff::Settings>:data <- %R1
	movt	r0, :upper16:gPipe
.Ltmp121:
	@DEBUG_VALUE: writeNonRt<const BiquadCoeff::Settings>:this <- %R0
	mov	r2, #40
	bl	_ZN4Pipe11_writeNonRtEPvj
.Ltmp122:
	.loc	7 112 2                 @ /root/Bela/projects/filter_matching2/render.cpp:112:2
	ldrb	r0, [r7]
	dmb	ish
	tst	r0, #1
	bne	.LBB2_16
.Ltmp123:
@ BB#13:
	@DEBUG_VALUE: _M_data:this <- %R8
	@DEBUG_VALUE: _M_length:this <- %R8
	@DEBUG_VALUE: _M_set_length:this <- %R8
	@DEBUG_VALUE: _M_data:this <- %R8
	@DEBUG_VALUE: _M_construct<const char *>:this <- %R8
	@DEBUG_VALUE: _M_construct_aux<const char *>:this <- %R8
	@DEBUG_VALUE: _M_construct<const char *>:this <- %R8
	@DEBUG_VALUE: _S_copy_chars:__p <- %R6
	@DEBUG_VALUE: _S_copy:__d <- %R6
	@DEBUG_VALUE: _M_local_data:this <- %R8
	@DEBUG_VALUE: basic_string:this <- %R8
	@DEBUG_VALUE: _M_data:this <- %R8
	@DEBUG_VALUE: _M_length:this <- %R8
	@DEBUG_VALUE: _M_set_length:this <- %R8
	@DEBUG_VALUE: _M_data:this <- %R8
	@DEBUG_VALUE: _M_construct<const char *>:this <- %R8
	@DEBUG_VALUE: _M_construct_aux<const char *>:this <- %R8
	@DEBUG_VALUE: _M_construct<const char *>:this <- %R8
	@DEBUG_VALUE: _S_copy_chars:__p <- %R6
	@DEBUG_VALUE: _S_copy:__d <- %R6
	@DEBUG_VALUE: _M_local_data:this <- %R8
	@DEBUG_VALUE: basic_string:this <- %R8
	@DEBUG_VALUE: _M_data:this <- %R8
	@DEBUG_VALUE: _M_length:this <- %R8
	@DEBUG_VALUE: _M_set_length:this <- %R8
	@DEBUG_VALUE: _M_data:this <- %R8
	@DEBUG_VALUE: _M_construct<const char *>:this <- %R8
	@DEBUG_VALUE: _M_construct_aux<const char *>:this <- %R8
	@DEBUG_VALUE: _M_construct<const char *>:this <- %R8
	@DEBUG_VALUE: _S_copy_chars:__p <- %R6
	@DEBUG_VALUE: _S_copy:__d <- %R6
	@DEBUG_VALUE: assign:__c1 <- %R6
	@DEBUG_VALUE: _M_local_data:this <- %R8
	@DEBUG_VALUE: basic_string:this <- %R8
	@DEBUG_VALUE: basic_string:this <- %R8
	@DEBUG_VALUE: _M_local_data:this <- %R8
	@DEBUG_VALUE: _M_construct<const char *>:this <- %R8
	@DEBUG_VALUE: _M_construct_aux<const char *>:this <- %R8
	@DEBUG_VALUE: _M_construct<const char *>:this <- %R8
	@DEBUG_VALUE: _M_data:this <- %R8
	@DEBUG_VALUE: _M_set_length:this <- %R8
	@DEBUG_VALUE: _M_length:this <- %R8
	@DEBUG_VALUE: _M_data:this <- %R8
	.loc	7 112 2 is_stmt 0 discriminator 1 @ /root/Bela/projects/filter_matching2/render.cpp:112:2
	movw	r5, :lower16:.L_MergedGlobals.4
	movt	r5, :upper16:.L_MergedGlobals.4
	mov	r0, r5
	bl	__cxa_guard_acquire
	cmp	r0, #0
	beq	.LBB2_16
.Ltmp124:
@ BB#14:
	@DEBUG_VALUE: _M_data:this <- %R8
	@DEBUG_VALUE: _M_length:this <- %R8
	@DEBUG_VALUE: _M_set_length:this <- %R8
	@DEBUG_VALUE: _M_data:this <- %R8
	@DEBUG_VALUE: _M_construct<const char *>:this <- %R8
	@DEBUG_VALUE: _M_construct_aux<const char *>:this <- %R8
	@DEBUG_VALUE: _M_construct<const char *>:this <- %R8
	@DEBUG_VALUE: _S_copy_chars:__p <- %R6
	@DEBUG_VALUE: _S_copy:__d <- %R6
	@DEBUG_VALUE: _M_local_data:this <- %R8
	@DEBUG_VALUE: basic_string:this <- %R8
	@DEBUG_VALUE: _M_data:this <- %R8
	@DEBUG_VALUE: _M_length:this <- %R8
	@DEBUG_VALUE: _M_set_length:this <- %R8
	@DEBUG_VALUE: _M_data:this <- %R8
	@DEBUG_VALUE: _M_construct<const char *>:this <- %R8
	@DEBUG_VALUE: _M_construct_aux<const char *>:this <- %R8
	@DEBUG_VALUE: _M_construct<const char *>:this <- %R8
	@DEBUG_VALUE: _S_copy_chars:__p <- %R6
	@DEBUG_VALUE: _S_copy:__d <- %R6
	@DEBUG_VALUE: _M_local_data:this <- %R8
	@DEBUG_VALUE: basic_string:this <- %R8
	@DEBUG_VALUE: _M_data:this <- %R8
	@DEBUG_VALUE: _M_length:this <- %R8
	@DEBUG_VALUE: _M_set_length:this <- %R8
	@DEBUG_VALUE: _M_data:this <- %R8
	@DEBUG_VALUE: _M_construct<const char *>:this <- %R8
	@DEBUG_VALUE: _M_construct_aux<const char *>:this <- %R8
	@DEBUG_VALUE: _M_construct<const char *>:this <- %R8
	@DEBUG_VALUE: _S_copy_chars:__p <- %R6
	@DEBUG_VALUE: _S_copy:__d <- %R6
	@DEBUG_VALUE: assign:__c1 <- %R6
	@DEBUG_VALUE: _M_local_data:this <- %R8
	@DEBUG_VALUE: basic_string:this <- %R8
	@DEBUG_VALUE: basic_string:this <- %R8
	@DEBUG_VALUE: _M_local_data:this <- %R8
	@DEBUG_VALUE: _M_construct<const char *>:this <- %R8
	@DEBUG_VALUE: _M_construct_aux<const char *>:this <- %R8
	@DEBUG_VALUE: _M_construct<const char *>:this <- %R8
	@DEBUG_VALUE: _M_data:this <- %R8
	@DEBUG_VALUE: _M_set_length:this <- %R8
	@DEBUG_VALUE: _M_length:this <- %R8
	@DEBUG_VALUE: _M_data:this <- %R8
	.loc	7 112 17 discriminator 2 @ /root/Bela/projects/filter_matching2/render.cpp:112:17
	ldr	r1, [r9, #12]
.Ltmp125:
	@DEBUG_VALUE: Fft:length <- %R1
	mov	r2, #0
.Ltmp126:
	.loc	34 56 18 is_stmt 1      @ ./libraries/Fft/Fft.h:56:18
	mov	r0, r5
	str	r2, [r0, #48]!
.Ltmp127:
	@DEBUG_VALUE: Fft:this <- %R0
	.loc	34 57 26                @ ./libraries/Fft/Fft.h:57:26
	str	r2, [r0, #4]
	.loc	34 58 29                @ ./libraries/Fft/Fft.h:58:29
	str	r2, [r0, #8]
.Ltmp128:
	.loc	34 15 28                @ ./libraries/Fft/Fft.h:15:28
.Ltmp44:
	bl	_ZN3Fft5setupEj
.Ltmp129:
.Ltmp45:
.Ltmp130:
@ BB#15:                                @ %_ZN3FftC2Ej.exit
	@DEBUG_VALUE: _M_data:this <- %R8
	@DEBUG_VALUE: _M_length:this <- %R8
	@DEBUG_VALUE: _M_set_length:this <- %R8
	@DEBUG_VALUE: _M_data:this <- %R8
	@DEBUG_VALUE: _M_construct<const char *>:this <- %R8
	@DEBUG_VALUE: _M_construct_aux<const char *>:this <- %R8
	@DEBUG_VALUE: _M_construct<const char *>:this <- %R8
	@DEBUG_VALUE: _S_copy_chars:__p <- %R6
	@DEBUG_VALUE: _S_copy:__d <- %R6
	@DEBUG_VALUE: _M_local_data:this <- %R8
	@DEBUG_VALUE: basic_string:this <- %R8
	@DEBUG_VALUE: _M_data:this <- %R8
	@DEBUG_VALUE: _M_length:this <- %R8
	@DEBUG_VALUE: _M_set_length:this <- %R8
	@DEBUG_VALUE: _M_data:this <- %R8
	@DEBUG_VALUE: _M_construct<const char *>:this <- %R8
	@DEBUG_VALUE: _M_construct_aux<const char *>:this <- %R8
	@DEBUG_VALUE: _M_construct<const char *>:this <- %R8
	@DEBUG_VALUE: _S_copy_chars:__p <- %R6
	@DEBUG_VALUE: _S_copy:__d <- %R6
	@DEBUG_VALUE: _M_local_data:this <- %R8
	@DEBUG_VALUE: basic_string:this <- %R8
	@DEBUG_VALUE: _M_data:this <- %R8
	@DEBUG_VALUE: _M_length:this <- %R8
	@DEBUG_VALUE: _M_set_length:this <- %R8
	@DEBUG_VALUE: _M_data:this <- %R8
	@DEBUG_VALUE: _M_construct<const char *>:this <- %R8
	@DEBUG_VALUE: _M_construct_aux<const char *>:this <- %R8
	@DEBUG_VALUE: _M_construct<const char *>:this <- %R8
	@DEBUG_VALUE: _S_copy_chars:__p <- %R6
	@DEBUG_VALUE: _S_copy:__d <- %R6
	@DEBUG_VALUE: assign:__c1 <- %R6
	@DEBUG_VALUE: _M_local_data:this <- %R8
	@DEBUG_VALUE: basic_string:this <- %R8
	@DEBUG_VALUE: basic_string:this <- %R8
	@DEBUG_VALUE: _M_local_data:this <- %R8
	@DEBUG_VALUE: _M_construct<const char *>:this <- %R8
	@DEBUG_VALUE: _M_construct_aux<const char *>:this <- %R8
	@DEBUG_VALUE: _M_construct<const char *>:this <- %R8
	@DEBUG_VALUE: _M_data:this <- %R8
	@DEBUG_VALUE: _M_set_length:this <- %R8
	@DEBUG_VALUE: _M_length:this <- %R8
	@DEBUG_VALUE: _M_data:this <- %R8
	.loc	7 112 2 discriminator 3 @ /root/Bela/projects/filter_matching2/render.cpp:112:2
	movw	r0, :lower16:_ZN3FftD2Ev
	movw	r2, :lower16:__dso_handle
	add	r1, r5, #48
	movt	r0, :upper16:_ZN3FftD2Ev
	movt	r2, :upper16:__dso_handle
	bl	__cxa_atexit
	.loc	7 112 2 is_stmt 0 discriminator 5 @ /root/Bela/projects/filter_matching2/render.cpp:112:2
	mov	r0, r5
	bl	__cxa_guard_release
.Ltmp131:
.LBB2_16:
	@DEBUG_VALUE: _M_data:this <- %R8
	@DEBUG_VALUE: _M_length:this <- %R8
	@DEBUG_VALUE: _M_set_length:this <- %R8
	@DEBUG_VALUE: _M_data:this <- %R8
	@DEBUG_VALUE: _M_construct<const char *>:this <- %R8
	@DEBUG_VALUE: _M_construct_aux<const char *>:this <- %R8
	@DEBUG_VALUE: _M_construct<const char *>:this <- %R8
	@DEBUG_VALUE: _S_copy_chars:__p <- %R6
	@DEBUG_VALUE: _S_copy:__d <- %R6
	@DEBUG_VALUE: _M_local_data:this <- %R8
	@DEBUG_VALUE: basic_string:this <- %R8
	@DEBUG_VALUE: _M_data:this <- %R8
	@DEBUG_VALUE: _M_length:this <- %R8
	@DEBUG_VALUE: _M_set_length:this <- %R8
	@DEBUG_VALUE: _M_data:this <- %R8
	@DEBUG_VALUE: _M_construct<const char *>:this <- %R8
	@DEBUG_VALUE: _M_construct_aux<const char *>:this <- %R8
	@DEBUG_VALUE: _M_construct<const char *>:this <- %R8
	@DEBUG_VALUE: _S_copy_chars:__p <- %R6
	@DEBUG_VALUE: _S_copy:__d <- %R6
	@DEBUG_VALUE: _M_local_data:this <- %R8
	@DEBUG_VALUE: basic_string:this <- %R8
	@DEBUG_VALUE: _M_data:this <- %R8
	@DEBUG_VALUE: _M_length:this <- %R8
	@DEBUG_VALUE: _M_set_length:this <- %R8
	@DEBUG_VALUE: _M_data:this <- %R8
	@DEBUG_VALUE: _M_construct<const char *>:this <- %R8
	@DEBUG_VALUE: _M_construct_aux<const char *>:this <- %R8
	@DEBUG_VALUE: _M_construct<const char *>:this <- %R8
	@DEBUG_VALUE: _S_copy_chars:__p <- %R6
	@DEBUG_VALUE: _S_copy:__d <- %R6
	@DEBUG_VALUE: assign:__c1 <- %R6
	@DEBUG_VALUE: _M_local_data:this <- %R8
	@DEBUG_VALUE: basic_string:this <- %R8
	@DEBUG_VALUE: basic_string:this <- %R8
	@DEBUG_VALUE: _M_local_data:this <- %R8
	@DEBUG_VALUE: _M_construct<const char *>:this <- %R8
	@DEBUG_VALUE: _M_construct_aux<const char *>:this <- %R8
	@DEBUG_VALUE: _M_construct<const char *>:this <- %R8
	@DEBUG_VALUE: _M_data:this <- %R8
	@DEBUG_VALUE: _M_set_length:this <- %R8
	@DEBUG_VALUE: _M_length:this <- %R8
	@DEBUG_VALUE: _M_data:this <- %R8
	.loc	7 113 2 is_stmt 1       @ /root/Bela/projects/filter_matching2/render.cpp:113:2
	ldrb	r0, [r7, #4]
	dmb	ish
	tst	r0, #1
	bne	.LBB2_24
.Ltmp132:
@ BB#17:
	@DEBUG_VALUE: _M_data:this <- %R8
	@DEBUG_VALUE: _M_length:this <- %R8
	@DEBUG_VALUE: _M_set_length:this <- %R8
	@DEBUG_VALUE: _M_data:this <- %R8
	@DEBUG_VALUE: _M_construct<const char *>:this <- %R8
	@DEBUG_VALUE: _M_construct_aux<const char *>:this <- %R8
	@DEBUG_VALUE: _M_construct<const char *>:this <- %R8
	@DEBUG_VALUE: _S_copy_chars:__p <- %R6
	@DEBUG_VALUE: _S_copy:__d <- %R6
	@DEBUG_VALUE: _M_local_data:this <- %R8
	@DEBUG_VALUE: basic_string:this <- %R8
	@DEBUG_VALUE: _M_data:this <- %R8
	@DEBUG_VALUE: _M_length:this <- %R8
	@DEBUG_VALUE: _M_set_length:this <- %R8
	@DEBUG_VALUE: _M_data:this <- %R8
	@DEBUG_VALUE: _M_construct<const char *>:this <- %R8
	@DEBUG_VALUE: _M_construct_aux<const char *>:this <- %R8
	@DEBUG_VALUE: _M_construct<const char *>:this <- %R8
	@DEBUG_VALUE: _S_copy_chars:__p <- %R6
	@DEBUG_VALUE: _S_copy:__d <- %R6
	@DEBUG_VALUE: _M_local_data:this <- %R8
	@DEBUG_VALUE: basic_string:this <- %R8
	@DEBUG_VALUE: _M_data:this <- %R8
	@DEBUG_VALUE: _M_length:this <- %R8
	@DEBUG_VALUE: _M_set_length:this <- %R8
	@DEBUG_VALUE: _M_data:this <- %R8
	@DEBUG_VALUE: _M_construct<const char *>:this <- %R8
	@DEBUG_VALUE: _M_construct_aux<const char *>:this <- %R8
	@DEBUG_VALUE: _M_construct<const char *>:this <- %R8
	@DEBUG_VALUE: _S_copy_chars:__p <- %R6
	@DEBUG_VALUE: _S_copy:__d <- %R6
	@DEBUG_VALUE: assign:__c1 <- %R6
	@DEBUG_VALUE: _M_local_data:this <- %R8
	@DEBUG_VALUE: basic_string:this <- %R8
	@DEBUG_VALUE: basic_string:this <- %R8
	@DEBUG_VALUE: _M_local_data:this <- %R8
	@DEBUG_VALUE: _M_construct<const char *>:this <- %R8
	@DEBUG_VALUE: _M_construct_aux<const char *>:this <- %R8
	@DEBUG_VALUE: _M_construct<const char *>:this <- %R8
	@DEBUG_VALUE: _M_data:this <- %R8
	@DEBUG_VALUE: _M_set_length:this <- %R8
	@DEBUG_VALUE: _M_length:this <- %R8
	@DEBUG_VALUE: _M_data:this <- %R8
	.loc	7 113 2 is_stmt 0 discriminator 1 @ /root/Bela/projects/filter_matching2/render.cpp:113:2
	add	r10, r7, #4
	mov	r0, r10
	bl	__cxa_guard_acquire
	cmp	r0, #0
	beq	.LBB2_24
.Ltmp133:
@ BB#18:
	@DEBUG_VALUE: _M_data:this <- %R8
	@DEBUG_VALUE: _M_length:this <- %R8
	@DEBUG_VALUE: _M_set_length:this <- %R8
	@DEBUG_VALUE: _M_data:this <- %R8
	@DEBUG_VALUE: _M_construct<const char *>:this <- %R8
	@DEBUG_VALUE: _M_construct_aux<const char *>:this <- %R8
	@DEBUG_VALUE: _M_construct<const char *>:this <- %R8
	@DEBUG_VALUE: _S_copy_chars:__p <- %R6
	@DEBUG_VALUE: _S_copy:__d <- %R6
	@DEBUG_VALUE: _M_local_data:this <- %R8
	@DEBUG_VALUE: basic_string:this <- %R8
	@DEBUG_VALUE: _M_data:this <- %R8
	@DEBUG_VALUE: _M_length:this <- %R8
	@DEBUG_VALUE: _M_set_length:this <- %R8
	@DEBUG_VALUE: _M_data:this <- %R8
	@DEBUG_VALUE: _M_construct<const char *>:this <- %R8
	@DEBUG_VALUE: _M_construct_aux<const char *>:this <- %R8
	@DEBUG_VALUE: _M_construct<const char *>:this <- %R8
	@DEBUG_VALUE: _S_copy_chars:__p <- %R6
	@DEBUG_VALUE: _S_copy:__d <- %R6
	@DEBUG_VALUE: _M_local_data:this <- %R8
	@DEBUG_VALUE: basic_string:this <- %R8
	@DEBUG_VALUE: _M_data:this <- %R8
	@DEBUG_VALUE: _M_length:this <- %R8
	@DEBUG_VALUE: _M_set_length:this <- %R8
	@DEBUG_VALUE: _M_data:this <- %R8
	@DEBUG_VALUE: _M_construct<const char *>:this <- %R8
	@DEBUG_VALUE: _M_construct_aux<const char *>:this <- %R8
	@DEBUG_VALUE: _M_construct<const char *>:this <- %R8
	@DEBUG_VALUE: _S_copy_chars:__p <- %R6
	@DEBUG_VALUE: _S_copy:__d <- %R6
	@DEBUG_VALUE: assign:__c1 <- %R6
	@DEBUG_VALUE: _M_local_data:this <- %R8
	@DEBUG_VALUE: basic_string:this <- %R8
	@DEBUG_VALUE: basic_string:this <- %R8
	@DEBUG_VALUE: _M_local_data:this <- %R8
	@DEBUG_VALUE: _M_construct<const char *>:this <- %R8
	@DEBUG_VALUE: _M_construct_aux<const char *>:this <- %R8
	@DEBUG_VALUE: _M_construct<const char *>:this <- %R8
	@DEBUG_VALUE: _M_data:this <- %R8
	@DEBUG_VALUE: _M_set_length:this <- %R8
	@DEBUG_VALUE: _M_length:this <- %R8
	@DEBUG_VALUE: _M_data:this <- %R8
	.loc	7 113 31 discriminator 2 @ /root/Bela/projects/filter_matching2/render.cpp:113:31
	ldr	r5, [r9, #12]
.Ltmp134:
	@DEBUG_VALUE: _Vector_base:__n <- %R5
	@DEBUG_VALUE: vector:__n <- %R5
	@DEBUG_VALUE: _M_create_storage:__n <- %R5
	@DEBUG_VALUE: _M_allocate:__n <- %R5
	@DEBUG_VALUE: allocate:__n <- %R5
	@DEBUG_VALUE: allocate:__n <- %R5
	@DEBUG_VALUE: _M_default_initialize:__n <- %R5
	@DEBUG_VALUE: __uninitialized_default_n_a<float *, unsigned int, float>:__n <- %R5
	@DEBUG_VALUE: __uninitialized_default_n<float *, unsigned int>:__n <- %R5
	@DEBUG_VALUE: __uninit_default_n<float *, unsigned int>:__n <- %R5
	@DEBUG_VALUE: fill_n<float *, unsigned int, float>:__n <- %R5
	@DEBUG_VALUE: __fill_n_a<float *, unsigned int, float>:__n <- %R5
	@DEBUG_VALUE: __niter <- %R5
	mov	r4, #0
.Ltmp135:
	.loc	13 91 25 is_stmt 1      @ /usr/bin/../lib/gcc/arm-linux-gnueabihf/6.3.0/../../../../include/c++/6.3.0/bits/stl_vector.h:91:25
	str	r4, [r7, #24]
	.loc	13 91 37 is_stmt 0      @ /usr/bin/../lib/gcc/arm-linux-gnueabihf/6.3.0/../../../../include/c++/6.3.0/bits/stl_vector.h:91:37
	str	r4, [r7, #28]
.Ltmp136:
	.loc	13 170 9 is_stmt 1      @ /usr/bin/../lib/gcc/arm-linux-gnueabihf/6.3.0/../../../../include/c++/6.3.0/bits/stl_vector.h:170:9
	cmp	r5, #0
.Ltmp137:
	.loc	13 91 50                @ /usr/bin/../lib/gcc/arm-linux-gnueabihf/6.3.0/../../../../include/c++/6.3.0/bits/stl_vector.h:91:50
	str	r4, [r7, #32]
	beq	.LBB2_22
.Ltmp138:
@ BB#19:
	@DEBUG_VALUE: __niter <- %R5
	@DEBUG_VALUE: __fill_n_a<float *, unsigned int, float>:__n <- %R5
	@DEBUG_VALUE: fill_n<float *, unsigned int, float>:__n <- %R5
	@DEBUG_VALUE: __uninit_default_n<float *, unsigned int>:__n <- %R5
	@DEBUG_VALUE: __uninitialized_default_n<float *, unsigned int>:__n <- %R5
	@DEBUG_VALUE: __uninitialized_default_n_a<float *, unsigned int, float>:__n <- %R5
	@DEBUG_VALUE: _M_default_initialize:__n <- %R5
	@DEBUG_VALUE: allocate:__n <- %R5
	@DEBUG_VALUE: allocate:__n <- %R5
	@DEBUG_VALUE: _M_allocate:__n <- %R5
	@DEBUG_VALUE: _M_create_storage:__n <- %R5
	@DEBUG_VALUE: vector:__n <- %R5
	@DEBUG_VALUE: _Vector_base:__n <- %R5
	@DEBUG_VALUE: _M_data:this <- %R8
	@DEBUG_VALUE: _M_length:this <- %R8
	@DEBUG_VALUE: _M_set_length:this <- %R8
	@DEBUG_VALUE: _M_data:this <- %R8
	@DEBUG_VALUE: _M_construct<const char *>:this <- %R8
	@DEBUG_VALUE: _M_construct_aux<const char *>:this <- %R8
	@DEBUG_VALUE: _M_construct<const char *>:this <- %R8
	@DEBUG_VALUE: _S_copy_chars:__p <- %R6
	@DEBUG_VALUE: _S_copy:__d <- %R6
	@DEBUG_VALUE: _M_local_data:this <- %R8
	@DEBUG_VALUE: basic_string:this <- %R8
	@DEBUG_VALUE: _M_data:this <- %R8
	@DEBUG_VALUE: _M_length:this <- %R8
	@DEBUG_VALUE: _M_set_length:this <- %R8
	@DEBUG_VALUE: _M_data:this <- %R8
	@DEBUG_VALUE: _M_construct<const char *>:this <- %R8
	@DEBUG_VALUE: _M_construct_aux<const char *>:this <- %R8
	@DEBUG_VALUE: _M_construct<const char *>:this <- %R8
	@DEBUG_VALUE: _S_copy_chars:__p <- %R6
	@DEBUG_VALUE: _S_copy:__d <- %R6
	@DEBUG_VALUE: _M_local_data:this <- %R8
	@DEBUG_VALUE: basic_string:this <- %R8
	@DEBUG_VALUE: _M_data:this <- %R8
	@DEBUG_VALUE: _M_length:this <- %R8
	@DEBUG_VALUE: _M_set_length:this <- %R8
	@DEBUG_VALUE: _M_data:this <- %R8
	@DEBUG_VALUE: _M_construct<const char *>:this <- %R8
	@DEBUG_VALUE: _M_construct_aux<const char *>:this <- %R8
	@DEBUG_VALUE: _M_construct<const char *>:this <- %R8
	@DEBUG_VALUE: _S_copy_chars:__p <- %R6
	@DEBUG_VALUE: _S_copy:__d <- %R6
	@DEBUG_VALUE: assign:__c1 <- %R6
	@DEBUG_VALUE: _M_local_data:this <- %R8
	@DEBUG_VALUE: basic_string:this <- %R8
	@DEBUG_VALUE: basic_string:this <- %R8
	@DEBUG_VALUE: _M_local_data:this <- %R8
	@DEBUG_VALUE: _M_construct<const char *>:this <- %R8
	@DEBUG_VALUE: _M_construct_aux<const char *>:this <- %R8
	@DEBUG_VALUE: _M_construct<const char *>:this <- %R8
	@DEBUG_VALUE: _M_data:this <- %R8
	@DEBUG_VALUE: _M_set_length:this <- %R8
	@DEBUG_VALUE: _M_length:this <- %R8
	@DEBUG_VALUE: _M_data:this <- %R8
	.loc	9 101 6                 @ /usr/bin/../lib/gcc/arm-linux-gnueabihf/6.3.0/../../../../include/c++/6.3.0/ext/new_allocator.h:101:6
	cmp	r5, #1073741824
	bhs	.LBB2_40
.Ltmp139:
@ BB#20:                                @ %.lr.ph.i.i.preheader.i.i.i.i.i67
	@DEBUG_VALUE: __niter <- %R5
	@DEBUG_VALUE: __fill_n_a<float *, unsigned int, float>:__n <- %R5
	@DEBUG_VALUE: fill_n<float *, unsigned int, float>:__n <- %R5
	@DEBUG_VALUE: __uninit_default_n<float *, unsigned int>:__n <- %R5
	@DEBUG_VALUE: __uninitialized_default_n<float *, unsigned int>:__n <- %R5
	@DEBUG_VALUE: __uninitialized_default_n_a<float *, unsigned int, float>:__n <- %R5
	@DEBUG_VALUE: _M_default_initialize:__n <- %R5
	@DEBUG_VALUE: allocate:__n <- %R5
	@DEBUG_VALUE: allocate:__n <- %R5
	@DEBUG_VALUE: _M_allocate:__n <- %R5
	@DEBUG_VALUE: _M_create_storage:__n <- %R5
	@DEBUG_VALUE: vector:__n <- %R5
	@DEBUG_VALUE: _Vector_base:__n <- %R5
	@DEBUG_VALUE: _M_data:this <- %R8
	@DEBUG_VALUE: _M_length:this <- %R8
	@DEBUG_VALUE: _M_set_length:this <- %R8
	@DEBUG_VALUE: _M_data:this <- %R8
	@DEBUG_VALUE: _M_construct<const char *>:this <- %R8
	@DEBUG_VALUE: _M_construct_aux<const char *>:this <- %R8
	@DEBUG_VALUE: _M_construct<const char *>:this <- %R8
	@DEBUG_VALUE: _S_copy_chars:__p <- %R6
	@DEBUG_VALUE: _S_copy:__d <- %R6
	@DEBUG_VALUE: _M_local_data:this <- %R8
	@DEBUG_VALUE: basic_string:this <- %R8
	@DEBUG_VALUE: _M_data:this <- %R8
	@DEBUG_VALUE: _M_length:this <- %R8
	@DEBUG_VALUE: _M_set_length:this <- %R8
	@DEBUG_VALUE: _M_data:this <- %R8
	@DEBUG_VALUE: _M_construct<const char *>:this <- %R8
	@DEBUG_VALUE: _M_construct_aux<const char *>:this <- %R8
	@DEBUG_VALUE: _M_construct<const char *>:this <- %R8
	@DEBUG_VALUE: _S_copy_chars:__p <- %R6
	@DEBUG_VALUE: _S_copy:__d <- %R6
	@DEBUG_VALUE: _M_local_data:this <- %R8
	@DEBUG_VALUE: basic_string:this <- %R8
	@DEBUG_VALUE: _M_data:this <- %R8
	@DEBUG_VALUE: _M_length:this <- %R8
	@DEBUG_VALUE: _M_set_length:this <- %R8
	@DEBUG_VALUE: _M_data:this <- %R8
	@DEBUG_VALUE: _M_construct<const char *>:this <- %R8
	@DEBUG_VALUE: _M_construct_aux<const char *>:this <- %R8
	@DEBUG_VALUE: _M_construct<const char *>:this <- %R8
	@DEBUG_VALUE: _S_copy_chars:__p <- %R6
	@DEBUG_VALUE: _S_copy:__d <- %R6
	@DEBUG_VALUE: assign:__c1 <- %R6
	@DEBUG_VALUE: _M_local_data:this <- %R8
	@DEBUG_VALUE: basic_string:this <- %R8
	@DEBUG_VALUE: basic_string:this <- %R8
	@DEBUG_VALUE: _M_local_data:this <- %R8
	@DEBUG_VALUE: _M_construct<const char *>:this <- %R8
	@DEBUG_VALUE: _M_construct_aux<const char *>:this <- %R8
	@DEBUG_VALUE: _M_construct<const char *>:this <- %R8
	@DEBUG_VALUE: _M_data:this <- %R8
	@DEBUG_VALUE: _M_set_length:this <- %R8
	@DEBUG_VALUE: _M_length:this <- %R8
	@DEBUG_VALUE: _M_data:this <- %R8
	.loc	9 104 46                @ /usr/bin/../lib/gcc/arm-linux-gnueabihf/6.3.0/../../../../include/c++/6.3.0/ext/new_allocator.h:104:46
	lsl	r6, r5, #2
.Ltmp140:
	.loc	9 104 27 is_stmt 0      @ /usr/bin/../lib/gcc/arm-linux-gnueabihf/6.3.0/../../../../include/c++/6.3.0/ext/new_allocator.h:104:27
.Ltmp47:
	mov	r0, r6
	bl	_Znwj
.Ltmp48:
.Ltmp141:
@ BB#21:                                @ %.noexc70
	@DEBUG_VALUE: __niter <- %R5
	@DEBUG_VALUE: __fill_n_a<float *, unsigned int, float>:__n <- %R5
	@DEBUG_VALUE: fill_n<float *, unsigned int, float>:__n <- %R5
	@DEBUG_VALUE: __uninit_default_n<float *, unsigned int>:__n <- %R5
	@DEBUG_VALUE: __uninitialized_default_n<float *, unsigned int>:__n <- %R5
	@DEBUG_VALUE: __uninitialized_default_n_a<float *, unsigned int, float>:__n <- %R5
	@DEBUG_VALUE: _M_default_initialize:__n <- %R5
	@DEBUG_VALUE: allocate:__n <- %R5
	@DEBUG_VALUE: allocate:__n <- %R5
	@DEBUG_VALUE: _M_allocate:__n <- %R5
	@DEBUG_VALUE: _M_create_storage:__n <- %R5
	@DEBUG_VALUE: vector:__n <- %R5
	@DEBUG_VALUE: _Vector_base:__n <- %R5
	@DEBUG_VALUE: _M_data:this <- %R8
	@DEBUG_VALUE: _M_length:this <- %R8
	@DEBUG_VALUE: _M_set_length:this <- %R8
	@DEBUG_VALUE: _M_data:this <- %R8
	@DEBUG_VALUE: _M_construct<const char *>:this <- %R8
	@DEBUG_VALUE: _M_construct_aux<const char *>:this <- %R8
	@DEBUG_VALUE: _M_construct<const char *>:this <- %R8
	@DEBUG_VALUE: _M_local_data:this <- %R8
	@DEBUG_VALUE: basic_string:this <- %R8
	@DEBUG_VALUE: _M_data:this <- %R8
	@DEBUG_VALUE: _M_length:this <- %R8
	@DEBUG_VALUE: _M_set_length:this <- %R8
	@DEBUG_VALUE: _M_data:this <- %R8
	@DEBUG_VALUE: _M_construct<const char *>:this <- %R8
	@DEBUG_VALUE: _M_construct_aux<const char *>:this <- %R8
	@DEBUG_VALUE: _M_construct<const char *>:this <- %R8
	@DEBUG_VALUE: _M_local_data:this <- %R8
	@DEBUG_VALUE: basic_string:this <- %R8
	@DEBUG_VALUE: _M_data:this <- %R8
	@DEBUG_VALUE: _M_length:this <- %R8
	@DEBUG_VALUE: _M_set_length:this <- %R8
	@DEBUG_VALUE: _M_data:this <- %R8
	@DEBUG_VALUE: _M_construct<const char *>:this <- %R8
	@DEBUG_VALUE: _M_construct_aux<const char *>:this <- %R8
	@DEBUG_VALUE: _M_construct<const char *>:this <- %R8
	@DEBUG_VALUE: _M_local_data:this <- %R8
	@DEBUG_VALUE: basic_string:this <- %R8
	@DEBUG_VALUE: basic_string:this <- %R8
	@DEBUG_VALUE: _M_local_data:this <- %R8
	@DEBUG_VALUE: _M_construct<const char *>:this <- %R8
	@DEBUG_VALUE: _M_construct_aux<const char *>:this <- %R8
	@DEBUG_VALUE: _M_construct<const char *>:this <- %R8
	@DEBUG_VALUE: _M_data:this <- %R8
	@DEBUG_VALUE: _M_set_length:this <- %R8
	@DEBUG_VALUE: _M_length:this <- %R8
	@DEBUG_VALUE: _M_data:this <- %R8
	@DEBUG_VALUE: __fill_n_a<float *, unsigned int, float>:__first <- %R0
	@DEBUG_VALUE: fill_n<float *, unsigned int, float>:__first <- %R0
	@DEBUG_VALUE: __uninit_default_n<float *, unsigned int>:__first <- %R0
	@DEBUG_VALUE: __uninitialized_default_n<float *, unsigned int>:__first <- %R0
	@DEBUG_VALUE: __uninitialized_default_n_a<float *, unsigned int, float>:__first <- %R0
	.file	61 "/usr/bin/../lib/gcc/arm-linux-gnueabihf/6.3.0/../../../../include/c++/6.3.0/bits" "stl_algobase.h"
	.loc	61 754 11 is_stmt 1     @ /usr/bin/../lib/gcc/arm-linux-gnueabihf/6.3.0/../../../../include/c++/6.3.0/bits/stl_algobase.h:754:11
	mov	r1, #0
	mov	r2, r6
.Ltmp142:
	.loc	13 185 25               @ /usr/bin/../lib/gcc/arm-linux-gnueabihf/6.3.0/../../../../include/c++/6.3.0/bits/stl_vector.h:185:25
	str	r0, [r7, #24]
	.loc	13 187 59               @ /usr/bin/../lib/gcc/arm-linux-gnueabihf/6.3.0/../../../../include/c++/6.3.0/bits/stl_vector.h:187:59
	add	r4, r0, r5, lsl #2
	.loc	13 186 26               @ /usr/bin/../lib/gcc/arm-linux-gnueabihf/6.3.0/../../../../include/c++/6.3.0/bits/stl_vector.h:186:26
	str	r0, [r7, #28]
	.loc	13 187 34               @ /usr/bin/../lib/gcc/arm-linux-gnueabihf/6.3.0/../../../../include/c++/6.3.0/bits/stl_vector.h:187:34
	str	r4, [r7, #32]
.Ltmp143:
	.loc	61 754 11               @ /usr/bin/../lib/gcc/arm-linux-gnueabihf/6.3.0/../../../../include/c++/6.3.0/bits/stl_algobase.h:754:11
	bl	memset
.Ltmp144:
	@DEBUG_VALUE: __uninitialized_default_n<float *, unsigned int>:__assignable <- 1
	b	.LBB2_23
.Ltmp145:
.LBB2_22:                               @ %_ZNSt12_Vector_baseIfSaIfEEC2EjRKS0_.exit.thread.i65
	@DEBUG_VALUE: __niter <- %R5
	@DEBUG_VALUE: __fill_n_a<float *, unsigned int, float>:__n <- %R5
	@DEBUG_VALUE: fill_n<float *, unsigned int, float>:__n <- %R5
	@DEBUG_VALUE: __uninit_default_n<float *, unsigned int>:__n <- %R5
	@DEBUG_VALUE: __uninitialized_default_n<float *, unsigned int>:__n <- %R5
	@DEBUG_VALUE: __uninitialized_default_n_a<float *, unsigned int, float>:__n <- %R5
	@DEBUG_VALUE: _M_default_initialize:__n <- %R5
	@DEBUG_VALUE: allocate:__n <- %R5
	@DEBUG_VALUE: allocate:__n <- %R5
	@DEBUG_VALUE: _M_allocate:__n <- %R5
	@DEBUG_VALUE: _M_create_storage:__n <- %R5
	@DEBUG_VALUE: vector:__n <- %R5
	@DEBUG_VALUE: _Vector_base:__n <- %R5
	@DEBUG_VALUE: _M_data:this <- %R8
	@DEBUG_VALUE: _M_length:this <- %R8
	@DEBUG_VALUE: _M_set_length:this <- %R8
	@DEBUG_VALUE: _M_data:this <- %R8
	@DEBUG_VALUE: _M_construct<const char *>:this <- %R8
	@DEBUG_VALUE: _M_construct_aux<const char *>:this <- %R8
	@DEBUG_VALUE: _M_construct<const char *>:this <- %R8
	@DEBUG_VALUE: _S_copy_chars:__p <- %R6
	@DEBUG_VALUE: _S_copy:__d <- %R6
	@DEBUG_VALUE: _M_local_data:this <- %R8
	@DEBUG_VALUE: basic_string:this <- %R8
	@DEBUG_VALUE: _M_data:this <- %R8
	@DEBUG_VALUE: _M_length:this <- %R8
	@DEBUG_VALUE: _M_set_length:this <- %R8
	@DEBUG_VALUE: _M_data:this <- %R8
	@DEBUG_VALUE: _M_construct<const char *>:this <- %R8
	@DEBUG_VALUE: _M_construct_aux<const char *>:this <- %R8
	@DEBUG_VALUE: _M_construct<const char *>:this <- %R8
	@DEBUG_VALUE: _S_copy_chars:__p <- %R6
	@DEBUG_VALUE: _S_copy:__d <- %R6
	@DEBUG_VALUE: _M_local_data:this <- %R8
	@DEBUG_VALUE: basic_string:this <- %R8
	@DEBUG_VALUE: _M_data:this <- %R8
	@DEBUG_VALUE: _M_length:this <- %R8
	@DEBUG_VALUE: _M_set_length:this <- %R8
	@DEBUG_VALUE: _M_data:this <- %R8
	@DEBUG_VALUE: _M_construct<const char *>:this <- %R8
	@DEBUG_VALUE: _M_construct_aux<const char *>:this <- %R8
	@DEBUG_VALUE: _M_construct<const char *>:this <- %R8
	@DEBUG_VALUE: _S_copy_chars:__p <- %R6
	@DEBUG_VALUE: _S_copy:__d <- %R6
	@DEBUG_VALUE: assign:__c1 <- %R6
	@DEBUG_VALUE: _M_local_data:this <- %R8
	@DEBUG_VALUE: basic_string:this <- %R8
	@DEBUG_VALUE: basic_string:this <- %R8
	@DEBUG_VALUE: _M_local_data:this <- %R8
	@DEBUG_VALUE: _M_construct<const char *>:this <- %R8
	@DEBUG_VALUE: _M_construct_aux<const char *>:this <- %R8
	@DEBUG_VALUE: _M_construct<const char *>:this <- %R8
	@DEBUG_VALUE: _M_data:this <- %R8
	@DEBUG_VALUE: _M_set_length:this <- %R8
	@DEBUG_VALUE: _M_length:this <- %R8
	@DEBUG_VALUE: _M_data:this <- %R8
	@DEBUG_VALUE: __uninitialized_default_n<float *, unsigned int>:__assignable <- 1
	.loc	13 185 25               @ /usr/bin/../lib/gcc/arm-linux-gnueabihf/6.3.0/../../../../include/c++/6.3.0/bits/stl_vector.h:185:25
	str	r4, [r7, #24]
	.loc	13 186 26               @ /usr/bin/../lib/gcc/arm-linux-gnueabihf/6.3.0/../../../../include/c++/6.3.0/bits/stl_vector.h:186:26
	str	r4, [r7, #28]
	.loc	13 187 34               @ /usr/bin/../lib/gcc/arm-linux-gnueabihf/6.3.0/../../../../include/c++/6.3.0/bits/stl_vector.h:187:34
	str	r4, [r7, #32]
.Ltmp146:
.LBB2_23:
	@DEBUG_VALUE: __niter <- %R5
	@DEBUG_VALUE: __fill_n_a<float *, unsigned int, float>:__n <- %R5
	@DEBUG_VALUE: fill_n<float *, unsigned int, float>:__n <- %R5
	@DEBUG_VALUE: __uninit_default_n<float *, unsigned int>:__n <- %R5
	@DEBUG_VALUE: __uninitialized_default_n<float *, unsigned int>:__n <- %R5
	@DEBUG_VALUE: __uninitialized_default_n_a<float *, unsigned int, float>:__n <- %R5
	@DEBUG_VALUE: _M_default_initialize:__n <- %R5
	@DEBUG_VALUE: allocate:__n <- %R5
	@DEBUG_VALUE: allocate:__n <- %R5
	@DEBUG_VALUE: _M_allocate:__n <- %R5
	@DEBUG_VALUE: _M_create_storage:__n <- %R5
	@DEBUG_VALUE: vector:__n <- %R5
	@DEBUG_VALUE: _Vector_base:__n <- %R5
	@DEBUG_VALUE: _M_data:this <- %R8
	@DEBUG_VALUE: _M_length:this <- %R8
	@DEBUG_VALUE: _M_set_length:this <- %R8
	@DEBUG_VALUE: _M_data:this <- %R8
	@DEBUG_VALUE: _M_construct<const char *>:this <- %R8
	@DEBUG_VALUE: _M_construct_aux<const char *>:this <- %R8
	@DEBUG_VALUE: _M_construct<const char *>:this <- %R8
	@DEBUG_VALUE: _M_local_data:this <- %R8
	@DEBUG_VALUE: basic_string:this <- %R8
	@DEBUG_VALUE: _M_data:this <- %R8
	@DEBUG_VALUE: _M_length:this <- %R8
	@DEBUG_VALUE: _M_set_length:this <- %R8
	@DEBUG_VALUE: _M_data:this <- %R8
	@DEBUG_VALUE: _M_construct<const char *>:this <- %R8
	@DEBUG_VALUE: _M_construct_aux<const char *>:this <- %R8
	@DEBUG_VALUE: _M_construct<const char *>:this <- %R8
	@DEBUG_VALUE: _M_local_data:this <- %R8
	@DEBUG_VALUE: basic_string:this <- %R8
	@DEBUG_VALUE: _M_data:this <- %R8
	@DEBUG_VALUE: _M_length:this <- %R8
	@DEBUG_VALUE: _M_set_length:this <- %R8
	@DEBUG_VALUE: _M_data:this <- %R8
	@DEBUG_VALUE: _M_construct<const char *>:this <- %R8
	@DEBUG_VALUE: _M_construct_aux<const char *>:this <- %R8
	@DEBUG_VALUE: _M_construct<const char *>:this <- %R8
	@DEBUG_VALUE: _M_local_data:this <- %R8
	@DEBUG_VALUE: basic_string:this <- %R8
	@DEBUG_VALUE: basic_string:this <- %R8
	@DEBUG_VALUE: _M_local_data:this <- %R8
	@DEBUG_VALUE: _M_construct<const char *>:this <- %R8
	@DEBUG_VALUE: _M_construct_aux<const char *>:this <- %R8
	@DEBUG_VALUE: _M_construct<const char *>:this <- %R8
	@DEBUG_VALUE: _M_data:this <- %R8
	@DEBUG_VALUE: _M_set_length:this <- %R8
	@DEBUG_VALUE: _M_length:this <- %R8
	@DEBUG_VALUE: _M_data:this <- %R8
	.loc	7 113 2 discriminator 7 @ /root/Bela/projects/filter_matching2/render.cpp:113:2
	movw	r0, :lower16:_ZNSt6vectorIfSaIfEED2Ev
	movw	r2, :lower16:__dso_handle
.Ltmp147:
	.loc	13 1308 26              @ /usr/bin/../lib/gcc/arm-linux-gnueabihf/6.3.0/../../../../include/c++/6.3.0/bits/stl_vector.h:1308:26
	add	r1, r7, #24
.Ltmp148:
	@DEBUG_VALUE: _M_default_initialize:this <- %R1
	.loc	7 113 2 discriminator 7 @ /root/Bela/projects/filter_matching2/render.cpp:113:2
	movt	r0, :upper16:_ZNSt6vectorIfSaIfEED2Ev
	movt	r2, :upper16:__dso_handle
.Ltmp149:
	.loc	13 1308 26              @ /usr/bin/../lib/gcc/arm-linux-gnueabihf/6.3.0/../../../../include/c++/6.3.0/bits/stl_vector.h:1308:26
	str	r4, [r7, #28]
.Ltmp150:
	.loc	7 113 2 discriminator 7 @ /root/Bela/projects/filter_matching2/render.cpp:113:2
	bl	__cxa_atexit
.Ltmp151:
	.loc	7 113 2 is_stmt 0 discriminator 8 @ /root/Bela/projects/filter_matching2/render.cpp:113:2
	mov	r0, r10
	bl	__cxa_guard_release
.Ltmp152:
.LBB2_24:
	@DEBUG_VALUE: _M_data:this <- %R8
	@DEBUG_VALUE: _M_length:this <- %R8
	@DEBUG_VALUE: _M_set_length:this <- %R8
	@DEBUG_VALUE: _M_data:this <- %R8
	@DEBUG_VALUE: _M_construct<const char *>:this <- %R8
	@DEBUG_VALUE: _M_construct_aux<const char *>:this <- %R8
	@DEBUG_VALUE: _M_construct<const char *>:this <- %R8
	@DEBUG_VALUE: _M_local_data:this <- %R8
	@DEBUG_VALUE: basic_string:this <- %R8
	@DEBUG_VALUE: _M_data:this <- %R8
	@DEBUG_VALUE: _M_length:this <- %R8
	@DEBUG_VALUE: _M_set_length:this <- %R8
	@DEBUG_VALUE: _M_data:this <- %R8
	@DEBUG_VALUE: _M_construct<const char *>:this <- %R8
	@DEBUG_VALUE: _M_construct_aux<const char *>:this <- %R8
	@DEBUG_VALUE: _M_construct<const char *>:this <- %R8
	@DEBUG_VALUE: _M_local_data:this <- %R8
	@DEBUG_VALUE: basic_string:this <- %R8
	@DEBUG_VALUE: _M_data:this <- %R8
	@DEBUG_VALUE: _M_length:this <- %R8
	@DEBUG_VALUE: _M_set_length:this <- %R8
	@DEBUG_VALUE: _M_data:this <- %R8
	@DEBUG_VALUE: _M_construct<const char *>:this <- %R8
	@DEBUG_VALUE: _M_construct_aux<const char *>:this <- %R8
	@DEBUG_VALUE: _M_construct<const char *>:this <- %R8
	@DEBUG_VALUE: _M_local_data:this <- %R8
	@DEBUG_VALUE: basic_string:this <- %R8
	@DEBUG_VALUE: basic_string:this <- %R8
	@DEBUG_VALUE: _M_local_data:this <- %R8
	@DEBUG_VALUE: _M_construct<const char *>:this <- %R8
	@DEBUG_VALUE: _M_construct_aux<const char *>:this <- %R8
	@DEBUG_VALUE: _M_construct<const char *>:this <- %R8
	@DEBUG_VALUE: _M_data:this <- %R8
	@DEBUG_VALUE: _M_set_length:this <- %R8
	@DEBUG_VALUE: _M_length:this <- %R8
	@DEBUG_VALUE: _M_data:this <- %R8
	.loc	7 114 2 is_stmt 1       @ /root/Bela/projects/filter_matching2/render.cpp:114:2
	ldrb	r0, [r7, #8]
	dmb	ish
	tst	r0, #1
	bne	.LBB2_32
.Ltmp153:
@ BB#25:
	@DEBUG_VALUE: _M_data:this <- %R8
	@DEBUG_VALUE: _M_length:this <- %R8
	@DEBUG_VALUE: _M_set_length:this <- %R8
	@DEBUG_VALUE: _M_data:this <- %R8
	@DEBUG_VALUE: _M_construct<const char *>:this <- %R8
	@DEBUG_VALUE: _M_construct_aux<const char *>:this <- %R8
	@DEBUG_VALUE: _M_construct<const char *>:this <- %R8
	@DEBUG_VALUE: _M_local_data:this <- %R8
	@DEBUG_VALUE: basic_string:this <- %R8
	@DEBUG_VALUE: _M_data:this <- %R8
	@DEBUG_VALUE: _M_length:this <- %R8
	@DEBUG_VALUE: _M_set_length:this <- %R8
	@DEBUG_VALUE: _M_data:this <- %R8
	@DEBUG_VALUE: _M_construct<const char *>:this <- %R8
	@DEBUG_VALUE: _M_construct_aux<const char *>:this <- %R8
	@DEBUG_VALUE: _M_construct<const char *>:this <- %R8
	@DEBUG_VALUE: _M_local_data:this <- %R8
	@DEBUG_VALUE: basic_string:this <- %R8
	@DEBUG_VALUE: _M_data:this <- %R8
	@DEBUG_VALUE: _M_length:this <- %R8
	@DEBUG_VALUE: _M_set_length:this <- %R8
	@DEBUG_VALUE: _M_data:this <- %R8
	@DEBUG_VALUE: _M_construct<const char *>:this <- %R8
	@DEBUG_VALUE: _M_construct_aux<const char *>:this <- %R8
	@DEBUG_VALUE: _M_construct<const char *>:this <- %R8
	@DEBUG_VALUE: _M_local_data:this <- %R8
	@DEBUG_VALUE: basic_string:this <- %R8
	@DEBUG_VALUE: basic_string:this <- %R8
	@DEBUG_VALUE: _M_local_data:this <- %R8
	@DEBUG_VALUE: _M_construct<const char *>:this <- %R8
	@DEBUG_VALUE: _M_construct_aux<const char *>:this <- %R8
	@DEBUG_VALUE: _M_construct<const char *>:this <- %R8
	@DEBUG_VALUE: _M_data:this <- %R8
	@DEBUG_VALUE: _M_set_length:this <- %R8
	@DEBUG_VALUE: _M_length:this <- %R8
	@DEBUG_VALUE: _M_data:this <- %R8
	.loc	7 114 2 is_stmt 0 discriminator 1 @ /root/Bela/projects/filter_matching2/render.cpp:114:2
	add	r5, r7, #8
	mov	r0, r5
	bl	__cxa_guard_acquire
	cmp	r0, #0
	beq	.LBB2_32
.Ltmp154:
@ BB#26:
	@DEBUG_VALUE: _M_data:this <- %R8
	@DEBUG_VALUE: _M_length:this <- %R8
	@DEBUG_VALUE: _M_set_length:this <- %R8
	@DEBUG_VALUE: _M_data:this <- %R8
	@DEBUG_VALUE: _M_construct<const char *>:this <- %R8
	@DEBUG_VALUE: _M_construct_aux<const char *>:this <- %R8
	@DEBUG_VALUE: _M_construct<const char *>:this <- %R8
	@DEBUG_VALUE: _M_local_data:this <- %R8
	@DEBUG_VALUE: basic_string:this <- %R8
	@DEBUG_VALUE: _M_data:this <- %R8
	@DEBUG_VALUE: _M_length:this <- %R8
	@DEBUG_VALUE: _M_set_length:this <- %R8
	@DEBUG_VALUE: _M_data:this <- %R8
	@DEBUG_VALUE: _M_construct<const char *>:this <- %R8
	@DEBUG_VALUE: _M_construct_aux<const char *>:this <- %R8
	@DEBUG_VALUE: _M_construct<const char *>:this <- %R8
	@DEBUG_VALUE: _M_local_data:this <- %R8
	@DEBUG_VALUE: basic_string:this <- %R8
	@DEBUG_VALUE: _M_data:this <- %R8
	@DEBUG_VALUE: _M_length:this <- %R8
	@DEBUG_VALUE: _M_set_length:this <- %R8
	@DEBUG_VALUE: _M_data:this <- %R8
	@DEBUG_VALUE: _M_construct<const char *>:this <- %R8
	@DEBUG_VALUE: _M_construct_aux<const char *>:this <- %R8
	@DEBUG_VALUE: _M_construct<const char *>:this <- %R8
	@DEBUG_VALUE: _M_local_data:this <- %R8
	@DEBUG_VALUE: basic_string:this <- %R8
	@DEBUG_VALUE: basic_string:this <- %R8
	@DEBUG_VALUE: _M_local_data:this <- %R8
	@DEBUG_VALUE: _M_construct<const char *>:this <- %R8
	@DEBUG_VALUE: _M_construct_aux<const char *>:this <- %R8
	@DEBUG_VALUE: _M_construct<const char *>:this <- %R8
	@DEBUG_VALUE: _M_data:this <- %R8
	@DEBUG_VALUE: _M_set_length:this <- %R8
	@DEBUG_VALUE: _M_length:this <- %R8
	@DEBUG_VALUE: _M_data:this <- %R8
	@DEBUG_VALUE: vector:__n <- %R4
	@DEBUG_VALUE: _Vector_base:__n <- %R4
	.loc	7 114 32 discriminator 2 @ /root/Bela/projects/filter_matching2/render.cpp:114:32
	ldr	r0, [r9, #12]
	mov	r4, #0
.Ltmp155:
	.loc	13 91 25 is_stmt 1      @ /usr/bin/../lib/gcc/arm-linux-gnueabihf/6.3.0/../../../../include/c++/6.3.0/bits/stl_vector.h:91:25
	str	r4, [r7, #36]
	.loc	13 91 37 is_stmt 0      @ /usr/bin/../lib/gcc/arm-linux-gnueabihf/6.3.0/../../../../include/c++/6.3.0/bits/stl_vector.h:91:37
	str	r4, [r7, #40]
	.loc	13 91 50                @ /usr/bin/../lib/gcc/arm-linux-gnueabihf/6.3.0/../../../../include/c++/6.3.0/bits/stl_vector.h:91:50
	str	r4, [r7, #44]
.Ltmp156:
	.loc	13 170 9 is_stmt 1      @ /usr/bin/../lib/gcc/arm-linux-gnueabihf/6.3.0/../../../../include/c++/6.3.0/bits/stl_vector.h:170:9
	cmp	r4, r0, lsr #1
	beq	.LBB2_30
.Ltmp157:
@ BB#27:
	@DEBUG_VALUE: _M_data:this <- %R8
	@DEBUG_VALUE: _M_length:this <- %R8
	@DEBUG_VALUE: _M_set_length:this <- %R8
	@DEBUG_VALUE: _M_data:this <- %R8
	@DEBUG_VALUE: _M_construct<const char *>:this <- %R8
	@DEBUG_VALUE: _M_construct_aux<const char *>:this <- %R8
	@DEBUG_VALUE: _M_construct<const char *>:this <- %R8
	@DEBUG_VALUE: _M_local_data:this <- %R8
	@DEBUG_VALUE: basic_string:this <- %R8
	@DEBUG_VALUE: _M_data:this <- %R8
	@DEBUG_VALUE: _M_length:this <- %R8
	@DEBUG_VALUE: _M_set_length:this <- %R8
	@DEBUG_VALUE: _M_data:this <- %R8
	@DEBUG_VALUE: _M_construct<const char *>:this <- %R8
	@DEBUG_VALUE: _M_construct_aux<const char *>:this <- %R8
	@DEBUG_VALUE: _M_construct<const char *>:this <- %R8
	@DEBUG_VALUE: _M_local_data:this <- %R8
	@DEBUG_VALUE: basic_string:this <- %R8
	@DEBUG_VALUE: _M_data:this <- %R8
	@DEBUG_VALUE: _M_length:this <- %R8
	@DEBUG_VALUE: _M_set_length:this <- %R8
	@DEBUG_VALUE: _M_data:this <- %R8
	@DEBUG_VALUE: _M_construct<const char *>:this <- %R8
	@DEBUG_VALUE: _M_construct_aux<const char *>:this <- %R8
	@DEBUG_VALUE: _M_construct<const char *>:this <- %R8
	@DEBUG_VALUE: _M_local_data:this <- %R8
	@DEBUG_VALUE: basic_string:this <- %R8
	@DEBUG_VALUE: basic_string:this <- %R8
	@DEBUG_VALUE: _M_local_data:this <- %R8
	@DEBUG_VALUE: _M_construct<const char *>:this <- %R8
	@DEBUG_VALUE: _M_construct_aux<const char *>:this <- %R8
	@DEBUG_VALUE: _M_construct<const char *>:this <- %R8
	@DEBUG_VALUE: _M_data:this <- %R8
	@DEBUG_VALUE: _M_set_length:this <- %R8
	@DEBUG_VALUE: _M_length:this <- %R8
	@DEBUG_VALUE: _M_data:this <- %R8
	.loc	9 101 6                 @ /usr/bin/../lib/gcc/arm-linux-gnueabihf/6.3.0/../../../../include/c++/6.3.0/ext/new_allocator.h:101:6
	cmp	r0, #0
	blt	.LBB2_42
.Ltmp158:
@ BB#28:                                @ %.lr.ph.i.i.preheader.i.i.i.i.i
	@DEBUG_VALUE: _M_data:this <- %R8
	@DEBUG_VALUE: _M_length:this <- %R8
	@DEBUG_VALUE: _M_set_length:this <- %R8
	@DEBUG_VALUE: _M_data:this <- %R8
	@DEBUG_VALUE: _M_construct<const char *>:this <- %R8
	@DEBUG_VALUE: _M_construct_aux<const char *>:this <- %R8
	@DEBUG_VALUE: _M_construct<const char *>:this <- %R8
	@DEBUG_VALUE: _M_local_data:this <- %R8
	@DEBUG_VALUE: basic_string:this <- %R8
	@DEBUG_VALUE: _M_data:this <- %R8
	@DEBUG_VALUE: _M_length:this <- %R8
	@DEBUG_VALUE: _M_set_length:this <- %R8
	@DEBUG_VALUE: _M_data:this <- %R8
	@DEBUG_VALUE: _M_construct<const char *>:this <- %R8
	@DEBUG_VALUE: _M_construct_aux<const char *>:this <- %R8
	@DEBUG_VALUE: _M_construct<const char *>:this <- %R8
	@DEBUG_VALUE: _M_local_data:this <- %R8
	@DEBUG_VALUE: basic_string:this <- %R8
	@DEBUG_VALUE: _M_data:this <- %R8
	@DEBUG_VALUE: _M_length:this <- %R8
	@DEBUG_VALUE: _M_set_length:this <- %R8
	@DEBUG_VALUE: _M_data:this <- %R8
	@DEBUG_VALUE: _M_construct<const char *>:this <- %R8
	@DEBUG_VALUE: _M_construct_aux<const char *>:this <- %R8
	@DEBUG_VALUE: _M_construct<const char *>:this <- %R8
	@DEBUG_VALUE: _M_local_data:this <- %R8
	@DEBUG_VALUE: basic_string:this <- %R8
	@DEBUG_VALUE: basic_string:this <- %R8
	@DEBUG_VALUE: _M_local_data:this <- %R8
	@DEBUG_VALUE: _M_construct<const char *>:this <- %R8
	@DEBUG_VALUE: _M_construct_aux<const char *>:this <- %R8
	@DEBUG_VALUE: _M_construct<const char *>:this <- %R8
	@DEBUG_VALUE: _M_data:this <- %R8
	@DEBUG_VALUE: _M_set_length:this <- %R8
	@DEBUG_VALUE: _M_length:this <- %R8
	@DEBUG_VALUE: _M_data:this <- %R8
	.loc	7 114 40 discriminator 2 @ /root/Bela/projects/filter_matching2/render.cpp:114:40
	lsr	r4, r0, #1
.Ltmp159:
	@DEBUG_VALUE: _M_create_storage:__n <- %R4
	@DEBUG_VALUE: _M_allocate:__n <- %R4
	@DEBUG_VALUE: allocate:__n <- %R4
	@DEBUG_VALUE: allocate:__n <- %R4
	@DEBUG_VALUE: _M_default_initialize:__n <- %R4
	@DEBUG_VALUE: __uninitialized_default_n_a<float *, unsigned int, float>:__n <- %R4
	@DEBUG_VALUE: __uninitialized_default_n<float *, unsigned int>:__n <- %R4
	@DEBUG_VALUE: __uninit_default_n<float *, unsigned int>:__n <- %R4
	@DEBUG_VALUE: fill_n<float *, unsigned int, float>:__n <- %R4
	@DEBUG_VALUE: __fill_n_a<float *, unsigned int, float>:__n <- %R4
	@DEBUG_VALUE: __niter <- %R4
	.loc	9 104 46                @ /usr/bin/../lib/gcc/arm-linux-gnueabihf/6.3.0/../../../../include/c++/6.3.0/ext/new_allocator.h:104:46
	lsl	r6, r4, #2
	.loc	9 104 27 is_stmt 0      @ /usr/bin/../lib/gcc/arm-linux-gnueabihf/6.3.0/../../../../include/c++/6.3.0/ext/new_allocator.h:104:27
.Ltmp52:
	mov	r0, r6
	bl	_Znwj
.Ltmp53:
.Ltmp160:
@ BB#29:                                @ %.noexc56
	@DEBUG_VALUE: __niter <- %R4
	@DEBUG_VALUE: __fill_n_a<float *, unsigned int, float>:__n <- %R4
	@DEBUG_VALUE: fill_n<float *, unsigned int, float>:__n <- %R4
	@DEBUG_VALUE: __uninit_default_n<float *, unsigned int>:__n <- %R4
	@DEBUG_VALUE: __uninitialized_default_n<float *, unsigned int>:__n <- %R4
	@DEBUG_VALUE: __uninitialized_default_n_a<float *, unsigned int, float>:__n <- %R4
	@DEBUG_VALUE: _M_default_initialize:__n <- %R4
	@DEBUG_VALUE: allocate:__n <- %R4
	@DEBUG_VALUE: allocate:__n <- %R4
	@DEBUG_VALUE: _M_allocate:__n <- %R4
	@DEBUG_VALUE: _M_create_storage:__n <- %R4
	@DEBUG_VALUE: _M_data:this <- %R8
	@DEBUG_VALUE: _M_length:this <- %R8
	@DEBUG_VALUE: _M_set_length:this <- %R8
	@DEBUG_VALUE: _M_data:this <- %R8
	@DEBUG_VALUE: _M_construct<const char *>:this <- %R8
	@DEBUG_VALUE: _M_construct_aux<const char *>:this <- %R8
	@DEBUG_VALUE: _M_construct<const char *>:this <- %R8
	@DEBUG_VALUE: _M_local_data:this <- %R8
	@DEBUG_VALUE: basic_string:this <- %R8
	@DEBUG_VALUE: _M_data:this <- %R8
	@DEBUG_VALUE: _M_length:this <- %R8
	@DEBUG_VALUE: _M_set_length:this <- %R8
	@DEBUG_VALUE: _M_data:this <- %R8
	@DEBUG_VALUE: _M_construct<const char *>:this <- %R8
	@DEBUG_VALUE: _M_construct_aux<const char *>:this <- %R8
	@DEBUG_VALUE: _M_construct<const char *>:this <- %R8
	@DEBUG_VALUE: _M_local_data:this <- %R8
	@DEBUG_VALUE: basic_string:this <- %R8
	@DEBUG_VALUE: _M_data:this <- %R8
	@DEBUG_VALUE: _M_length:this <- %R8
	@DEBUG_VALUE: _M_set_length:this <- %R8
	@DEBUG_VALUE: _M_data:this <- %R8
	@DEBUG_VALUE: _M_construct<const char *>:this <- %R8
	@DEBUG_VALUE: _M_construct_aux<const char *>:this <- %R8
	@DEBUG_VALUE: _M_construct<const char *>:this <- %R8
	@DEBUG_VALUE: _M_local_data:this <- %R8
	@DEBUG_VALUE: basic_string:this <- %R8
	@DEBUG_VALUE: basic_string:this <- %R8
	@DEBUG_VALUE: _M_local_data:this <- %R8
	@DEBUG_VALUE: _M_construct<const char *>:this <- %R8
	@DEBUG_VALUE: _M_construct_aux<const char *>:this <- %R8
	@DEBUG_VALUE: _M_construct<const char *>:this <- %R8
	@DEBUG_VALUE: _M_data:this <- %R8
	@DEBUG_VALUE: _M_set_length:this <- %R8
	@DEBUG_VALUE: _M_length:this <- %R8
	@DEBUG_VALUE: _M_data:this <- %R8
	@DEBUG_VALUE: __fill_n_a<float *, unsigned int, float>:__first <- %R0
	@DEBUG_VALUE: fill_n<float *, unsigned int, float>:__first <- %R0
	@DEBUG_VALUE: __uninit_default_n<float *, unsigned int>:__first <- %R0
	@DEBUG_VALUE: __uninitialized_default_n<float *, unsigned int>:__first <- %R0
	@DEBUG_VALUE: __uninitialized_default_n_a<float *, unsigned int, float>:__first <- %R0
	.loc	61 754 11 is_stmt 1     @ /usr/bin/../lib/gcc/arm-linux-gnueabihf/6.3.0/../../../../include/c++/6.3.0/bits/stl_algobase.h:754:11
	mov	r1, #0
	mov	r2, r6
.Ltmp161:
	.loc	13 185 25               @ /usr/bin/../lib/gcc/arm-linux-gnueabihf/6.3.0/../../../../include/c++/6.3.0/bits/stl_vector.h:185:25
	str	r0, [r7, #36]
	.loc	13 187 59               @ /usr/bin/../lib/gcc/arm-linux-gnueabihf/6.3.0/../../../../include/c++/6.3.0/bits/stl_vector.h:187:59
	add	r4, r0, r4, lsl #2
.Ltmp162:
	.loc	13 186 26               @ /usr/bin/../lib/gcc/arm-linux-gnueabihf/6.3.0/../../../../include/c++/6.3.0/bits/stl_vector.h:186:26
	str	r0, [r7, #40]
	.loc	13 187 34               @ /usr/bin/../lib/gcc/arm-linux-gnueabihf/6.3.0/../../../../include/c++/6.3.0/bits/stl_vector.h:187:34
	str	r4, [r7, #44]
.Ltmp163:
	.loc	61 754 11               @ /usr/bin/../lib/gcc/arm-linux-gnueabihf/6.3.0/../../../../include/c++/6.3.0/bits/stl_algobase.h:754:11
	bl	memset
.Ltmp164:
	@DEBUG_VALUE: __uninitialized_default_n<float *, unsigned int>:__assignable <- 1
	b	.LBB2_31
.Ltmp165:
.LBB2_30:                               @ %_ZNSt12_Vector_baseIfSaIfEEC2EjRKS0_.exit.thread.i
	@DEBUG_VALUE: _M_data:this <- %R8
	@DEBUG_VALUE: _M_length:this <- %R8
	@DEBUG_VALUE: _M_set_length:this <- %R8
	@DEBUG_VALUE: _M_data:this <- %R8
	@DEBUG_VALUE: _M_construct<const char *>:this <- %R8
	@DEBUG_VALUE: _M_construct_aux<const char *>:this <- %R8
	@DEBUG_VALUE: _M_construct<const char *>:this <- %R8
	@DEBUG_VALUE: _M_local_data:this <- %R8
	@DEBUG_VALUE: basic_string:this <- %R8
	@DEBUG_VALUE: _M_data:this <- %R8
	@DEBUG_VALUE: _M_length:this <- %R8
	@DEBUG_VALUE: _M_set_length:this <- %R8
	@DEBUG_VALUE: _M_data:this <- %R8
	@DEBUG_VALUE: _M_construct<const char *>:this <- %R8
	@DEBUG_VALUE: _M_construct_aux<const char *>:this <- %R8
	@DEBUG_VALUE: _M_construct<const char *>:this <- %R8
	@DEBUG_VALUE: _M_local_data:this <- %R8
	@DEBUG_VALUE: basic_string:this <- %R8
	@DEBUG_VALUE: _M_data:this <- %R8
	@DEBUG_VALUE: _M_length:this <- %R8
	@DEBUG_VALUE: _M_set_length:this <- %R8
	@DEBUG_VALUE: _M_data:this <- %R8
	@DEBUG_VALUE: _M_construct<const char *>:this <- %R8
	@DEBUG_VALUE: _M_construct_aux<const char *>:this <- %R8
	@DEBUG_VALUE: _M_construct<const char *>:this <- %R8
	@DEBUG_VALUE: _M_local_data:this <- %R8
	@DEBUG_VALUE: basic_string:this <- %R8
	@DEBUG_VALUE: basic_string:this <- %R8
	@DEBUG_VALUE: _M_local_data:this <- %R8
	@DEBUG_VALUE: _M_construct<const char *>:this <- %R8
	@DEBUG_VALUE: _M_construct_aux<const char *>:this <- %R8
	@DEBUG_VALUE: _M_construct<const char *>:this <- %R8
	@DEBUG_VALUE: _M_data:this <- %R8
	@DEBUG_VALUE: _M_set_length:this <- %R8
	@DEBUG_VALUE: _M_length:this <- %R8
	@DEBUG_VALUE: _M_data:this <- %R8
	@DEBUG_VALUE: __uninitialized_default_n<float *, unsigned int>:__assignable <- 1
	.loc	13 185 25               @ /usr/bin/../lib/gcc/arm-linux-gnueabihf/6.3.0/../../../../include/c++/6.3.0/bits/stl_vector.h:185:25
	str	r4, [r7, #36]
	.loc	13 186 26               @ /usr/bin/../lib/gcc/arm-linux-gnueabihf/6.3.0/../../../../include/c++/6.3.0/bits/stl_vector.h:186:26
	str	r4, [r7, #40]
	.loc	13 187 34               @ /usr/bin/../lib/gcc/arm-linux-gnueabihf/6.3.0/../../../../include/c++/6.3.0/bits/stl_vector.h:187:34
	str	r4, [r7, #44]
.Ltmp166:
.LBB2_31:
	@DEBUG_VALUE: _M_data:this <- %R8
	@DEBUG_VALUE: _M_length:this <- %R8
	@DEBUG_VALUE: _M_set_length:this <- %R8
	@DEBUG_VALUE: _M_data:this <- %R8
	@DEBUG_VALUE: _M_construct<const char *>:this <- %R8
	@DEBUG_VALUE: _M_construct_aux<const char *>:this <- %R8
	@DEBUG_VALUE: _M_construct<const char *>:this <- %R8
	@DEBUG_VALUE: _M_local_data:this <- %R8
	@DEBUG_VALUE: basic_string:this <- %R8
	@DEBUG_VALUE: _M_data:this <- %R8
	@DEBUG_VALUE: _M_length:this <- %R8
	@DEBUG_VALUE: _M_set_length:this <- %R8
	@DEBUG_VALUE: _M_data:this <- %R8
	@DEBUG_VALUE: _M_construct<const char *>:this <- %R8
	@DEBUG_VALUE: _M_construct_aux<const char *>:this <- %R8
	@DEBUG_VALUE: _M_construct<const char *>:this <- %R8
	@DEBUG_VALUE: _M_local_data:this <- %R8
	@DEBUG_VALUE: basic_string:this <- %R8
	@DEBUG_VALUE: _M_data:this <- %R8
	@DEBUG_VALUE: _M_length:this <- %R8
	@DEBUG_VALUE: _M_set_length:this <- %R8
	@DEBUG_VALUE: _M_data:this <- %R8
	@DEBUG_VALUE: _M_construct<const char *>:this <- %R8
	@DEBUG_VALUE: _M_construct_aux<const char *>:this <- %R8
	@DEBUG_VALUE: _M_construct<const char *>:this <- %R8
	@DEBUG_VALUE: _M_local_data:this <- %R8
	@DEBUG_VALUE: basic_string:this <- %R8
	@DEBUG_VALUE: basic_string:this <- %R8
	@DEBUG_VALUE: _M_local_data:this <- %R8
	@DEBUG_VALUE: _M_construct<const char *>:this <- %R8
	@DEBUG_VALUE: _M_construct_aux<const char *>:this <- %R8
	@DEBUG_VALUE: _M_construct<const char *>:this <- %R8
	@DEBUG_VALUE: _M_data:this <- %R8
	@DEBUG_VALUE: _M_set_length:this <- %R8
	@DEBUG_VALUE: _M_length:this <- %R8
	@DEBUG_VALUE: _M_data:this <- %R8
	.loc	7 114 2 discriminator 7 @ /root/Bela/projects/filter_matching2/render.cpp:114:2
	movw	r0, :lower16:_ZNSt6vectorIfSaIfEED2Ev
	movw	r2, :lower16:__dso_handle
.Ltmp167:
	.loc	13 1308 26              @ /usr/bin/../lib/gcc/arm-linux-gnueabihf/6.3.0/../../../../include/c++/6.3.0/bits/stl_vector.h:1308:26
	add	r1, r7, #36
.Ltmp168:
	@DEBUG_VALUE: _M_default_initialize:this <- %R1
	.loc	7 114 2 discriminator 7 @ /root/Bela/projects/filter_matching2/render.cpp:114:2
	movt	r0, :upper16:_ZNSt6vectorIfSaIfEED2Ev
	movt	r2, :upper16:__dso_handle
.Ltmp169:
	.loc	13 1308 26              @ /usr/bin/../lib/gcc/arm-linux-gnueabihf/6.3.0/../../../../include/c++/6.3.0/bits/stl_vector.h:1308:26
	str	r4, [r7, #40]
.Ltmp170:
	.loc	7 114 2 discriminator 7 @ /root/Bela/projects/filter_matching2/render.cpp:114:2
	bl	__cxa_atexit
.Ltmp171:
	.loc	7 114 2 is_stmt 0 discriminator 8 @ /root/Bela/projects/filter_matching2/render.cpp:114:2
	mov	r0, r5
	bl	__cxa_guard_release
.Ltmp172:
.LBB2_32:
	@DEBUG_VALUE: _M_data:this <- %R8
	@DEBUG_VALUE: _M_length:this <- %R8
	@DEBUG_VALUE: _M_set_length:this <- %R8
	@DEBUG_VALUE: _M_data:this <- %R8
	@DEBUG_VALUE: _M_construct<const char *>:this <- %R8
	@DEBUG_VALUE: _M_construct_aux<const char *>:this <- %R8
	@DEBUG_VALUE: _M_construct<const char *>:this <- %R8
	@DEBUG_VALUE: _M_local_data:this <- %R8
	@DEBUG_VALUE: basic_string:this <- %R8
	@DEBUG_VALUE: _M_data:this <- %R8
	@DEBUG_VALUE: _M_length:this <- %R8
	@DEBUG_VALUE: _M_set_length:this <- %R8
	@DEBUG_VALUE: _M_data:this <- %R8
	@DEBUG_VALUE: _M_construct<const char *>:this <- %R8
	@DEBUG_VALUE: _M_construct_aux<const char *>:this <- %R8
	@DEBUG_VALUE: _M_construct<const char *>:this <- %R8
	@DEBUG_VALUE: _M_local_data:this <- %R8
	@DEBUG_VALUE: basic_string:this <- %R8
	@DEBUG_VALUE: _M_data:this <- %R8
	@DEBUG_VALUE: _M_length:this <- %R8
	@DEBUG_VALUE: _M_set_length:this <- %R8
	@DEBUG_VALUE: _M_data:this <- %R8
	@DEBUG_VALUE: _M_construct<const char *>:this <- %R8
	@DEBUG_VALUE: _M_construct_aux<const char *>:this <- %R8
	@DEBUG_VALUE: _M_construct<const char *>:this <- %R8
	@DEBUG_VALUE: _M_local_data:this <- %R8
	@DEBUG_VALUE: basic_string:this <- %R8
	@DEBUG_VALUE: basic_string:this <- %R8
	@DEBUG_VALUE: _M_local_data:this <- %R8
	@DEBUG_VALUE: _M_construct<const char *>:this <- %R8
	@DEBUG_VALUE: _M_construct_aux<const char *>:this <- %R8
	@DEBUG_VALUE: _M_construct<const char *>:this <- %R8
	@DEBUG_VALUE: _M_data:this <- %R8
	@DEBUG_VALUE: _M_set_length:this <- %R8
	@DEBUG_VALUE: _M_length:this <- %R8
	@DEBUG_VALUE: _M_data:this <- %R8
	.loc	7 115 6 is_stmt 1       @ /root/Bela/projects/filter_matching2/render.cpp:115:6
	add	r5, r7, #48
	.loc	7 115 12 is_stmt 0      @ /root/Bela/projects/filter_matching2/render.cpp:115:12
	ldr	r1, [r9, #12]
	.loc	7 115 6                 @ /root/Bela/projects/filter_matching2/render.cpp:115:6
	mov	r0, r5
	bl	_ZN3Fft5setupEj
.Ltmp173:
	.loc	29 125 11 is_stmt 1     @ ./libraries/Biquad/Biquad.h:125:11
	vmov.i32	q8, #0x0
.Ltmp174:
	@DEBUG_VALUE: setup:this <- %R8
	@DEBUG_VALUE: Biquad:this <- %R8
	@DEBUG_VALUE: guiCallback:analysisBiquad <- [%R8+0]
	.loc	29 124 11               @ ./libraries/Biquad/Biquad.h:124:11
	add	r0, r8, #80
	.loc	29 125 11               @ ./libraries/Biquad/Biquad.h:125:11
	vst1.64	{d16, d17}, [r0]
.Ltmp175:
	.loc	29 56 17                @ ./libraries/Biquad/Biquad.h:56:17
	vldr	d16, [r7, #64]
	.loc	29 57 17                @ ./libraries/Biquad/Biquad.h:57:17
	vldr	d17, [r7, #80]
	.loc	29 55 19                @ ./libraries/Biquad/Biquad.h:55:19
	ldr	r0, [r7, #72]
	.loc	29 55 8 is_stmt 0       @ ./libraries/Biquad/Biquad.h:55:8
	str	r0, [sp, #80]
	.loc	29 60 3 is_stmt 1       @ ./libraries/Biquad/Biquad.h:60:3
	mov	r0, r8
	.loc	29 56 6                 @ ./libraries/Biquad/Biquad.h:56:6
	vstr	d16, [sp, #72]
	.loc	29 57 24                @ ./libraries/Biquad/Biquad.h:57:24
	vdiv.f64	d16, d17, d16
	.loc	29 57 6 is_stmt 0       @ ./libraries/Biquad/Biquad.h:57:6
	vstr	d16, [sp, #48]
	.loc	29 58 16 is_stmt 1      @ ./libraries/Biquad/Biquad.h:58:16
	vldr	d16, [r7, #88]
	.loc	29 58 5 is_stmt 0       @ ./libraries/Biquad/Biquad.h:58:5
	vstr	d16, [sp, #56]
	.loc	29 59 23 is_stmt 1      @ ./libraries/Biquad/Biquad.h:59:23
	vldr	d16, [r7, #96]
	.loc	29 59 12 is_stmt 0      @ ./libraries/Biquad/Biquad.h:59:12
	vstr	d16, [sp, #64]
	.loc	29 60 3 is_stmt 1       @ ./libraries/Biquad/Biquad.h:60:3
	bl	_ZN12BiquadCoeffTIdE4calcEv
.Ltmp176:
	@DEBUG_VALUE: n <- 0
	.loc	13 656 66               @ /usr/bin/../lib/gcc/arm-linux-gnueabihf/6.3.0/../../../../include/c++/6.3.0/bits/stl_vector.h:656:66
	ldrd	r0, r1, [r7, #24]
.Ltmp177:
	.loc	7 117 2 discriminator 1 @ /root/Bela/projects/filter_matching2/render.cpp:117:2
	cmp	r1, r0
	beq	.LBB2_36
.Ltmp178:
@ BB#33:                                @ %.lr.ph90
	@DEBUG_VALUE: guiCallback:analysisBiquad <- [%R8+0]
	@DEBUG_VALUE: Biquad:this <- %R8
	@DEBUG_VALUE: setup:this <- %R8
	@DEBUG_VALUE: _M_data:this <- %R8
	@DEBUG_VALUE: _M_length:this <- %R8
	@DEBUG_VALUE: _M_set_length:this <- %R8
	@DEBUG_VALUE: _M_data:this <- %R8
	@DEBUG_VALUE: _M_construct<const char *>:this <- %R8
	@DEBUG_VALUE: _M_construct_aux<const char *>:this <- %R8
	@DEBUG_VALUE: _M_construct<const char *>:this <- %R8
	@DEBUG_VALUE: _M_local_data:this <- %R8
	@DEBUG_VALUE: basic_string:this <- %R8
	@DEBUG_VALUE: _M_data:this <- %R8
	@DEBUG_VALUE: _M_length:this <- %R8
	@DEBUG_VALUE: _M_set_length:this <- %R8
	@DEBUG_VALUE: _M_data:this <- %R8
	@DEBUG_VALUE: _M_construct<const char *>:this <- %R8
	@DEBUG_VALUE: _M_construct_aux<const char *>:this <- %R8
	@DEBUG_VALUE: _M_construct<const char *>:this <- %R8
	@DEBUG_VALUE: _M_local_data:this <- %R8
	@DEBUG_VALUE: basic_string:this <- %R8
	@DEBUG_VALUE: _M_data:this <- %R8
	@DEBUG_VALUE: _M_length:this <- %R8
	@DEBUG_VALUE: _M_set_length:this <- %R8
	@DEBUG_VALUE: _M_data:this <- %R8
	@DEBUG_VALUE: _M_construct<const char *>:this <- %R8
	@DEBUG_VALUE: _M_construct_aux<const char *>:this <- %R8
	@DEBUG_VALUE: _M_construct<const char *>:this <- %R8
	@DEBUG_VALUE: _M_local_data:this <- %R8
	@DEBUG_VALUE: basic_string:this <- %R8
	@DEBUG_VALUE: basic_string:this <- %R8
	@DEBUG_VALUE: _M_local_data:this <- %R8
	@DEBUG_VALUE: _M_construct<const char *>:this <- %R8
	@DEBUG_VALUE: _M_construct_aux<const char *>:this <- %R8
	@DEBUG_VALUE: _M_construct<const char *>:this <- %R8
	@DEBUG_VALUE: _M_data:this <- %R8
	@DEBUG_VALUE: _M_set_length:this <- %R8
	@DEBUG_VALUE: _M_length:this <- %R8
	@DEBUG_VALUE: _M_data:this <- %R8
	.loc	29 110 23               @ ./libraries/Biquad/Biquad.h:110:23
	add	r2, sp, #8
.Ltmp179:
	.loc	7 121 34                @ /root/Bela/projects/filter_matching2/render.cpp:121:34
	vmov.f64	d22, #1.000000e+00
.Ltmp180:
	.loc	13 656 50               @ /usr/bin/../lib/gcc/arm-linux-gnueabihf/6.3.0/../../../../include/c++/6.3.0/bits/stl_vector.h:656:50
	sub	r1, r1, r0
	asr	r1, r1, #2
.Ltmp181:
	.loc	29 110 23               @ ./libraries/Biquad/Biquad.h:110:23
	vldmia	r2, {d16, d17, d18, d19}
	mov	r2, #0
	.loc	29 112 6                @ ./libraries/Biquad/Biquad.h:112:6
	vldr	d20, [sp, #96]
	.loc	29 110 28               @ ./libraries/Biquad/Biquad.h:110:28
	vldr	d23, [sp, #88]
	.loc	29 112 18               @ ./libraries/Biquad/Biquad.h:112:18
	vldr	d21, [sp, #40]
.Ltmp182:
.LBB2_34:                               @ =>This Inner Loop Header: Depth=1
	@DEBUG_VALUE: operator[]:__n <- %R2
	.loc	7 121 34                @ /root/Bela/projects/filter_matching2/render.cpp:121:34
	cmp	r2, #0
	vmov.i32	d24, #0x0
	vmoveq.f64	d24, d22
.Ltmp183:
	@DEBUG_VALUE: process:in <- %D24
	.loc	7 117 41 discriminator 3 @ /root/Bela/projects/filter_matching2/render.cpp:117:41
	add	r2, r2, #1
.Ltmp184:
	@DEBUG_VALUE: n <- %R2
	.loc	7 117 2 is_stmt 0 discriminator 1 @ /root/Bela/projects/filter_matching2/render.cpp:117:2
	cmp	r2, r1
.Ltmp185:
	.loc	29 110 21 is_stmt 1     @ ./libraries/Biquad/Biquad.h:110:21
	vmul.f64	d25, d16, d24
	.loc	29 110 26 is_stmt 0     @ ./libraries/Biquad/Biquad.h:110:26
	vadd.f64	d23, d25, d23
.Ltmp186:
	@DEBUG_VALUE: process:out <- %D23
	.loc	29 111 11 is_stmt 1     @ ./libraries/Biquad/Biquad.h:111:11
	vmul.f64	d25, d17, d24
	.loc	29 112 11               @ ./libraries/Biquad/Biquad.h:112:11
	vmul.f64	d24, d18, d24
.Ltmp187:
	.loc	29 112 21 is_stmt 0     @ ./libraries/Biquad/Biquad.h:112:21
	vmul.f64	d26, d21, d23
	.loc	29 111 26 is_stmt 1     @ ./libraries/Biquad/Biquad.h:111:26
	vmul.f64	d27, d19, d23
	.loc	29 111 16 is_stmt 0     @ ./libraries/Biquad/Biquad.h:111:16
	vadd.f64	d25, d25, d20
.Ltmp188:
	.loc	7 121 11 is_stmt 1      @ /root/Bela/projects/filter_matching2/render.cpp:121:11
	vcvt.f32.f64	s0, d23
.Ltmp189:
	.loc	29 112 16               @ ./libraries/Biquad/Biquad.h:112:16
	vsub.f64	d20, d24, d26
	.loc	29 111 21               @ ./libraries/Biquad/Biquad.h:111:21
	vsub.f64	d23, d25, d27
.Ltmp190:
	.loc	7 121 9                 @ /root/Bela/projects/filter_matching2/render.cpp:121:9
	vstmia	r0!, {s0}
.Ltmp191:
	.loc	7 117 2 discriminator 1 @ /root/Bela/projects/filter_matching2/render.cpp:117:2
	blo	.LBB2_34
.Ltmp192:
@ BB#35:                                @ %._crit_edge91
	@DEBUG_VALUE: n <- %R2
	.loc	29 110 28               @ ./libraries/Biquad/Biquad.h:110:28
	vstr	d23, [sp, #88]
	.loc	29 112 6                @ ./libraries/Biquad/Biquad.h:112:6
	vstr	d20, [sp, #96]
.Ltmp193:
.LBB2_36:
	.loc	7 123 6                 @ /root/Bela/projects/filter_matching2/render.cpp:123:6
	add	r1, r7, #24
.Ltmp194:
	@DEBUG_VALUE: size:this <- %R1
	mov	r0, r5
	bl	_ZN3Fft3fftERKSt6vectorIfSaIfEE
.Ltmp195:
	.loc	13 656 66               @ /usr/bin/../lib/gcc/arm-linux-gnueabihf/6.3.0/../../../../include/c++/6.3.0/bits/stl_vector.h:656:66
	ldr	r3, [r7, #36]
	.loc	13 656 40 is_stmt 0     @ /usr/bin/../lib/gcc/arm-linux-gnueabihf/6.3.0/../../../../include/c++/6.3.0/bits/stl_vector.h:656:40
	ldr	r0, [r7, #40]
.Ltmp196:
	.loc	7 125 2 is_stmt 1 discriminator 1 @ /root/Bela/projects/filter_matching2/render.cpp:125:2
	cmp	r0, r3
.Ltmp197:
	@DEBUG_VALUE: n <- 0
	@DEBUG_VALUE: guiCallback:mx <- -1.000000e+05
	beq	.LBB2_39
@ BB#37:                                @ %.lr.ph.preheader
	mov	r4, #0
	mov	r5, #4
	mov	r6, #0
.LBB2_38:                               @ %.lr.ph
                                        @ =>This Inner Loop Header: Depth=1
.Ltmp198:
	@DEBUG_VALUE: fdr:n <- %R6
	.loc	34 39 38                @ ./libraries/Fft/Fft.h:39:38
	ldr	r0, [r7, #52]
.Ltmp199:
	.loc	34 48 52                @ ./libraries/Fft/Fft.h:48:52
	add	r0, r0, r5
	vldr	s0, [r0, #-4]
	.loc	34 48 70 is_stmt 0      @ ./libraries/Fft/Fft.h:48:70
	vldr	s2, [r0]
	.loc	34 48 59                @ ./libraries/Fft/Fft.h:48:59
	vmul.f32	d16, d0, d0
	.loc	34 48 77                @ ./libraries/Fft/Fft.h:48:77
	vmul.f32	d17, d1, d1
	.loc	34 48 68                @ ./libraries/Fft/Fft.h:48:68
	vadd.f32	d0, d17, d16
	.loc	34 48 37 discriminator 4 @ ./libraries/Fft/Fft.h:48:37
                                        @ kill: %S0<def> %S0<kill> %D0<kill>
	bl	sqrtf_neon_hfp
.Ltmp200:
	.loc	13 781 32 is_stmt 1     @ /usr/bin/../lib/gcc/arm-linux-gnueabihf/6.3.0/../../../../include/c++/6.3.0/bits/stl_vector.h:781:32
	ldr	r3, [r7, #36]
.Ltmp201:
	.loc	7 125 28 discriminator 1 @ /root/Bela/projects/filter_matching2/render.cpp:125:28
	add	r5, r5, #8
	.loc	7 125 42 is_stmt 0 discriminator 3 @ /root/Bela/projects/filter_matching2/render.cpp:125:42
	add	r6, r6, #1
.Ltmp202:
	@DEBUG_VALUE: n <- %R6
	.loc	7 127 10 is_stmt 1      @ /root/Bela/projects/filter_matching2/render.cpp:127:10
	add	r0, r3, r4
.Ltmp203:
	.loc	7 125 28 discriminator 1 @ /root/Bela/projects/filter_matching2/render.cpp:125:28
	add	r4, r4, #4
.Ltmp204:
	.loc	7 127 10                @ /root/Bela/projects/filter_matching2/render.cpp:127:10
	vstr	s0, [r0]
.Ltmp205:
	.loc	13 656 40               @ /usr/bin/../lib/gcc/arm-linux-gnueabihf/6.3.0/../../../../include/c++/6.3.0/bits/stl_vector.h:656:40
	ldr	r0, [r7, #40]
	.loc	13 656 50 is_stmt 0     @ /usr/bin/../lib/gcc/arm-linux-gnueabihf/6.3.0/../../../../include/c++/6.3.0/bits/stl_vector.h:656:50
	sub	r1, r0, r3
.Ltmp206:
	.loc	7 125 2 is_stmt 1 discriminator 1 @ /root/Bela/projects/filter_matching2/render.cpp:125:2
	cmp	r6, r1, asr #2
	blo	.LBB2_38
.Ltmp207:
.LBB2_39:                               @ %._crit_edge
	@DEBUG_VALUE: sendBuffer<float, std::allocator<float> >:bufferId <- 0
	.file	62 "/usr/bin/../lib/gcc/arm-linux-gnueabihf/6.3.0/../../../../include/c++/6.3.0" "typeinfo"
	.loc	62 100 14               @ /usr/bin/../lib/gcc/arm-linux-gnueabihf/6.3.0/../../../../include/c++/6.3.0/typeinfo:100:14
	movw	r1, :lower16:_ZTIf
.Ltmp208:
	.loc	13 656 50               @ /usr/bin/../lib/gcc/arm-linux-gnueabihf/6.3.0/../../../../include/c++/6.3.0/bits/stl_vector.h:656:50
	sub	r0, r0, r3
.Ltmp209:
	.loc	62 100 14               @ /usr/bin/../lib/gcc/arm-linux-gnueabihf/6.3.0/../../../../include/c++/6.3.0/typeinfo:100:14
	movt	r1, :upper16:_ZTIf
	ldr	r2, [r1, #4]
	mov	r1, r2
	ldrb	r7, [r1], #1
.Ltmp210:
	.loc	15 155 9 discriminator 2 @ ./libraries/Gui/Gui.h:155:9
	str	r0, [sp]
	movw	r0, :lower16:gui
.Ltmp211:
	.loc	62 100 14               @ /usr/bin/../lib/gcc/arm-linux-gnueabihf/6.3.0/../../../../include/c++/6.3.0/typeinfo:100:14
	cmp	r7, #42
.Ltmp212:
	.loc	15 155 9 discriminator 2 @ ./libraries/Gui/Gui.h:155:9
	movt	r0, :upper16:gui
.Ltmp213:
	@DEBUG_VALUE: sendBuffer<float, std::allocator<float> >:this <- %R0
	.loc	62 100 14               @ /usr/bin/../lib/gcc/arm-linux-gnueabihf/6.3.0/../../../../include/c++/6.3.0/typeinfo:100:14
	movne	r1, r2
.Ltmp214:
	@DEBUG_VALUE: sendBuffer<float, std::allocator<float> >:type <- %R1
	.loc	15 155 9 discriminator 2 @ ./libraries/Gui/Gui.h:155:9
	mov	r2, #0
	bl	_ZN3Gui12doSendBufferEPKcjPKvj
.Ltmp215:
	.loc	7 131 2                 @ /root/Bela/projects/filter_matching2/render.cpp:131:2
	mov	r0, #0
	sub	sp, r11, #28
	pop	{r4, r5, r6, r7, r8, r9, r10, r11, pc}
.LBB2_40:                               @ %.noexc.i.i66
.Ltmp216:
	@DEBUG_VALUE: __niter <- %R5
	@DEBUG_VALUE: __fill_n_a<float *, unsigned int, float>:__n <- %R5
	@DEBUG_VALUE: fill_n<float *, unsigned int, float>:__n <- %R5
	@DEBUG_VALUE: __uninit_default_n<float *, unsigned int>:__n <- %R5
	@DEBUG_VALUE: __uninitialized_default_n<float *, unsigned int>:__n <- %R5
	@DEBUG_VALUE: __uninitialized_default_n_a<float *, unsigned int, float>:__n <- %R5
	@DEBUG_VALUE: _M_default_initialize:__n <- %R5
	@DEBUG_VALUE: allocate:__n <- %R5
	@DEBUG_VALUE: allocate:__n <- %R5
	@DEBUG_VALUE: _M_allocate:__n <- %R5
	@DEBUG_VALUE: _M_create_storage:__n <- %R5
	@DEBUG_VALUE: vector:__n <- %R5
	@DEBUG_VALUE: _Vector_base:__n <- %R5
	@DEBUG_VALUE: _M_data:this <- %R8
	@DEBUG_VALUE: _M_length:this <- %R8
	@DEBUG_VALUE: _M_set_length:this <- %R8
	@DEBUG_VALUE: _M_data:this <- %R8
	@DEBUG_VALUE: _M_construct<const char *>:this <- %R8
	@DEBUG_VALUE: _M_construct_aux<const char *>:this <- %R8
	@DEBUG_VALUE: _M_construct<const char *>:this <- %R8
	@DEBUG_VALUE: _S_copy_chars:__p <- %R6
	@DEBUG_VALUE: _S_copy:__d <- %R6
	@DEBUG_VALUE: _M_local_data:this <- %R8
	@DEBUG_VALUE: basic_string:this <- %R8
	@DEBUG_VALUE: _M_data:this <- %R8
	@DEBUG_VALUE: _M_length:this <- %R8
	@DEBUG_VALUE: _M_set_length:this <- %R8
	@DEBUG_VALUE: _M_data:this <- %R8
	@DEBUG_VALUE: _M_construct<const char *>:this <- %R8
	@DEBUG_VALUE: _M_construct_aux<const char *>:this <- %R8
	@DEBUG_VALUE: _M_construct<const char *>:this <- %R8
	@DEBUG_VALUE: _S_copy_chars:__p <- %R6
	@DEBUG_VALUE: _S_copy:__d <- %R6
	@DEBUG_VALUE: _M_local_data:this <- %R8
	@DEBUG_VALUE: basic_string:this <- %R8
	@DEBUG_VALUE: _M_data:this <- %R8
	@DEBUG_VALUE: _M_length:this <- %R8
	@DEBUG_VALUE: _M_set_length:this <- %R8
	@DEBUG_VALUE: _M_data:this <- %R8
	@DEBUG_VALUE: _M_construct<const char *>:this <- %R8
	@DEBUG_VALUE: _M_construct_aux<const char *>:this <- %R8
	@DEBUG_VALUE: _M_construct<const char *>:this <- %R8
	@DEBUG_VALUE: _S_copy_chars:__p <- %R6
	@DEBUG_VALUE: _S_copy:__d <- %R6
	@DEBUG_VALUE: assign:__c1 <- %R6
	@DEBUG_VALUE: _M_local_data:this <- %R8
	@DEBUG_VALUE: basic_string:this <- %R8
	@DEBUG_VALUE: basic_string:this <- %R8
	@DEBUG_VALUE: _M_local_data:this <- %R8
	@DEBUG_VALUE: _M_construct<const char *>:this <- %R8
	@DEBUG_VALUE: _M_construct_aux<const char *>:this <- %R8
	@DEBUG_VALUE: _M_construct<const char *>:this <- %R8
	@DEBUG_VALUE: _M_data:this <- %R8
	@DEBUG_VALUE: _M_set_length:this <- %R8
	@DEBUG_VALUE: _M_length:this <- %R8
	@DEBUG_VALUE: _M_data:this <- %R8
	.loc	9 102 4                 @ /usr/bin/../lib/gcc/arm-linux-gnueabihf/6.3.0/../../../../include/c++/6.3.0/ext/new_allocator.h:102:4
.Ltmp49:
	mov	lr, pc
	b	_ZSt17__throw_bad_allocv
.Ltmp50:
.Ltmp217:
@ BB#41:                                @ %.noexc69
	@DEBUG_VALUE: __niter <- %R5
	@DEBUG_VALUE: __fill_n_a<float *, unsigned int, float>:__n <- %R5
	@DEBUG_VALUE: fill_n<float *, unsigned int, float>:__n <- %R5
	@DEBUG_VALUE: __uninit_default_n<float *, unsigned int>:__n <- %R5
	@DEBUG_VALUE: __uninitialized_default_n<float *, unsigned int>:__n <- %R5
	@DEBUG_VALUE: __uninitialized_default_n_a<float *, unsigned int, float>:__n <- %R5
	@DEBUG_VALUE: _M_default_initialize:__n <- %R5
	@DEBUG_VALUE: allocate:__n <- %R5
	@DEBUG_VALUE: allocate:__n <- %R5
	@DEBUG_VALUE: _M_allocate:__n <- %R5
	@DEBUG_VALUE: _M_create_storage:__n <- %R5
	@DEBUG_VALUE: vector:__n <- %R5
	@DEBUG_VALUE: _Vector_base:__n <- %R5
	@DEBUG_VALUE: _M_data:this <- %R8
	@DEBUG_VALUE: _M_length:this <- %R8
	@DEBUG_VALUE: _M_set_length:this <- %R8
	@DEBUG_VALUE: _M_data:this <- %R8
	@DEBUG_VALUE: _M_construct<const char *>:this <- %R8
	@DEBUG_VALUE: _M_construct_aux<const char *>:this <- %R8
	@DEBUG_VALUE: _M_construct<const char *>:this <- %R8
	@DEBUG_VALUE: _S_copy_chars:__p <- %R6
	@DEBUG_VALUE: _S_copy:__d <- %R6
	@DEBUG_VALUE: _M_local_data:this <- %R8
	@DEBUG_VALUE: basic_string:this <- %R8
	@DEBUG_VALUE: _M_data:this <- %R8
	@DEBUG_VALUE: _M_length:this <- %R8
	@DEBUG_VALUE: _M_set_length:this <- %R8
	@DEBUG_VALUE: _M_data:this <- %R8
	@DEBUG_VALUE: _M_construct<const char *>:this <- %R8
	@DEBUG_VALUE: _M_construct_aux<const char *>:this <- %R8
	@DEBUG_VALUE: _M_construct<const char *>:this <- %R8
	@DEBUG_VALUE: _S_copy_chars:__p <- %R6
	@DEBUG_VALUE: _S_copy:__d <- %R6
	@DEBUG_VALUE: _M_local_data:this <- %R8
	@DEBUG_VALUE: basic_string:this <- %R8
	@DEBUG_VALUE: _M_data:this <- %R8
	@DEBUG_VALUE: _M_length:this <- %R8
	@DEBUG_VALUE: _M_set_length:this <- %R8
	@DEBUG_VALUE: _M_data:this <- %R8
	@DEBUG_VALUE: _M_construct<const char *>:this <- %R8
	@DEBUG_VALUE: _M_construct_aux<const char *>:this <- %R8
	@DEBUG_VALUE: _M_construct<const char *>:this <- %R8
	@DEBUG_VALUE: _S_copy_chars:__p <- %R6
	@DEBUG_VALUE: _S_copy:__d <- %R6
	@DEBUG_VALUE: assign:__c1 <- %R6
	@DEBUG_VALUE: _M_local_data:this <- %R8
	@DEBUG_VALUE: basic_string:this <- %R8
	@DEBUG_VALUE: basic_string:this <- %R8
	@DEBUG_VALUE: _M_local_data:this <- %R8
	@DEBUG_VALUE: _M_construct<const char *>:this <- %R8
	@DEBUG_VALUE: _M_construct_aux<const char *>:this <- %R8
	@DEBUG_VALUE: _M_construct<const char *>:this <- %R8
	@DEBUG_VALUE: _M_data:this <- %R8
	@DEBUG_VALUE: _M_set_length:this <- %R8
	@DEBUG_VALUE: _M_length:this <- %R8
	@DEBUG_VALUE: _M_data:this <- %R8
.LBB2_42:                               @ %.noexc.i.i
	@DEBUG_VALUE: _M_data:this <- %R8
	@DEBUG_VALUE: _M_length:this <- %R8
	@DEBUG_VALUE: _M_set_length:this <- %R8
	@DEBUG_VALUE: _M_data:this <- %R8
	@DEBUG_VALUE: _M_construct<const char *>:this <- %R8
	@DEBUG_VALUE: _M_construct_aux<const char *>:this <- %R8
	@DEBUG_VALUE: _M_construct<const char *>:this <- %R8
	@DEBUG_VALUE: _M_local_data:this <- %R8
	@DEBUG_VALUE: basic_string:this <- %R8
	@DEBUG_VALUE: _M_data:this <- %R8
	@DEBUG_VALUE: _M_length:this <- %R8
	@DEBUG_VALUE: _M_set_length:this <- %R8
	@DEBUG_VALUE: _M_data:this <- %R8
	@DEBUG_VALUE: _M_construct<const char *>:this <- %R8
	@DEBUG_VALUE: _M_construct_aux<const char *>:this <- %R8
	@DEBUG_VALUE: _M_construct<const char *>:this <- %R8
	@DEBUG_VALUE: _M_local_data:this <- %R8
	@DEBUG_VALUE: basic_string:this <- %R8
	@DEBUG_VALUE: _M_data:this <- %R8
	@DEBUG_VALUE: _M_length:this <- %R8
	@DEBUG_VALUE: _M_set_length:this <- %R8
	@DEBUG_VALUE: _M_data:this <- %R8
	@DEBUG_VALUE: _M_construct<const char *>:this <- %R8
	@DEBUG_VALUE: _M_construct_aux<const char *>:this <- %R8
	@DEBUG_VALUE: _M_construct<const char *>:this <- %R8
	@DEBUG_VALUE: _M_local_data:this <- %R8
	@DEBUG_VALUE: basic_string:this <- %R8
	@DEBUG_VALUE: basic_string:this <- %R8
	@DEBUG_VALUE: _M_local_data:this <- %R8
	@DEBUG_VALUE: _M_construct<const char *>:this <- %R8
	@DEBUG_VALUE: _M_construct_aux<const char *>:this <- %R8
	@DEBUG_VALUE: _M_construct<const char *>:this <- %R8
	@DEBUG_VALUE: _M_data:this <- %R8
	@DEBUG_VALUE: _M_set_length:this <- %R8
	@DEBUG_VALUE: _M_length:this <- %R8
	@DEBUG_VALUE: _M_data:this <- %R8
	.loc	9 102 4 is_stmt 0       @ /usr/bin/../lib/gcc/arm-linux-gnueabihf/6.3.0/../../../../include/c++/6.3.0/ext/new_allocator.h:102:4
.Ltmp54:
	mov	lr, pc
	b	_ZSt17__throw_bad_allocv
.Ltmp55:
.Ltmp218:
@ BB#43:                                @ %.noexc55
	@DEBUG_VALUE: _M_data:this <- %R8
	@DEBUG_VALUE: _M_length:this <- %R8
	@DEBUG_VALUE: _M_set_length:this <- %R8
	@DEBUG_VALUE: _M_data:this <- %R8
	@DEBUG_VALUE: _M_construct<const char *>:this <- %R8
	@DEBUG_VALUE: _M_construct_aux<const char *>:this <- %R8
	@DEBUG_VALUE: _M_construct<const char *>:this <- %R8
	@DEBUG_VALUE: _M_local_data:this <- %R8
	@DEBUG_VALUE: basic_string:this <- %R8
	@DEBUG_VALUE: _M_data:this <- %R8
	@DEBUG_VALUE: _M_length:this <- %R8
	@DEBUG_VALUE: _M_set_length:this <- %R8
	@DEBUG_VALUE: _M_data:this <- %R8
	@DEBUG_VALUE: _M_construct<const char *>:this <- %R8
	@DEBUG_VALUE: _M_construct_aux<const char *>:this <- %R8
	@DEBUG_VALUE: _M_construct<const char *>:this <- %R8
	@DEBUG_VALUE: _M_local_data:this <- %R8
	@DEBUG_VALUE: basic_string:this <- %R8
	@DEBUG_VALUE: _M_data:this <- %R8
	@DEBUG_VALUE: _M_length:this <- %R8
	@DEBUG_VALUE: _M_set_length:this <- %R8
	@DEBUG_VALUE: _M_data:this <- %R8
	@DEBUG_VALUE: _M_construct<const char *>:this <- %R8
	@DEBUG_VALUE: _M_construct_aux<const char *>:this <- %R8
	@DEBUG_VALUE: _M_construct<const char *>:this <- %R8
	@DEBUG_VALUE: _M_local_data:this <- %R8
	@DEBUG_VALUE: basic_string:this <- %R8
	@DEBUG_VALUE: basic_string:this <- %R8
	@DEBUG_VALUE: _M_local_data:this <- %R8
	@DEBUG_VALUE: _M_construct<const char *>:this <- %R8
	@DEBUG_VALUE: _M_construct_aux<const char *>:this <- %R8
	@DEBUG_VALUE: _M_construct<const char *>:this <- %R8
	@DEBUG_VALUE: _M_data:this <- %R8
	@DEBUG_VALUE: _M_set_length:this <- %R8
	@DEBUG_VALUE: _M_length:this <- %R8
	@DEBUG_VALUE: _M_data:this <- %R8
.LBB2_44:
	@DEBUG_VALUE: _M_data:this <- %R8
	@DEBUG_VALUE: _M_length:this <- %R8
	@DEBUG_VALUE: _M_set_length:this <- %R8
	@DEBUG_VALUE: _M_data:this <- %R8
	@DEBUG_VALUE: _M_construct<const char *>:this <- %R8
	@DEBUG_VALUE: _M_construct_aux<const char *>:this <- %R8
	@DEBUG_VALUE: _M_construct<const char *>:this <- %R8
	@DEBUG_VALUE: _M_local_data:this <- %R8
	@DEBUG_VALUE: basic_string:this <- %R8
	@DEBUG_VALUE: _M_data:this <- %R8
	@DEBUG_VALUE: _M_length:this <- %R8
	@DEBUG_VALUE: _M_set_length:this <- %R8
	@DEBUG_VALUE: _M_data:this <- %R8
	@DEBUG_VALUE: _M_construct<const char *>:this <- %R8
	@DEBUG_VALUE: _M_construct_aux<const char *>:this <- %R8
	@DEBUG_VALUE: _M_construct<const char *>:this <- %R8
	@DEBUG_VALUE: _M_local_data:this <- %R8
	@DEBUG_VALUE: basic_string:this <- %R8
	@DEBUG_VALUE: _M_data:this <- %R8
	@DEBUG_VALUE: _M_length:this <- %R8
	@DEBUG_VALUE: _M_set_length:this <- %R8
	@DEBUG_VALUE: _M_data:this <- %R8
	@DEBUG_VALUE: _M_construct<const char *>:this <- %R8
	@DEBUG_VALUE: _M_construct_aux<const char *>:this <- %R8
	@DEBUG_VALUE: _M_construct<const char *>:this <- %R8
	@DEBUG_VALUE: _M_local_data:this <- %R8
	@DEBUG_VALUE: basic_string:this <- %R8
	@DEBUG_VALUE: basic_string:this <- %R8
	@DEBUG_VALUE: _M_local_data:this <- %R8
	@DEBUG_VALUE: _M_construct<const char *>:this <- %R8
	@DEBUG_VALUE: _M_construct_aux<const char *>:this <- %R8
	@DEBUG_VALUE: _M_construct<const char *>:this <- %R8
	@DEBUG_VALUE: _M_data:this <- %R8
	@DEBUG_VALUE: _M_set_length:this <- %R8
	@DEBUG_VALUE: _M_length:this <- %R8
	@DEBUG_VALUE: _M_data:this <- %R8
.Ltmp56:
	mov	r4, r0
	.loc	7 114 2 is_stmt 1 discriminator 10 @ /root/Bela/projects/filter_matching2/render.cpp:114:2
	mov	r0, r5
	b	.LBB2_47
.Ltmp219:
.LBB2_45:
	@DEBUG_VALUE: __niter <- %R5
	@DEBUG_VALUE: __fill_n_a<float *, unsigned int, float>:__n <- %R5
	@DEBUG_VALUE: fill_n<float *, unsigned int, float>:__n <- %R5
	@DEBUG_VALUE: __uninit_default_n<float *, unsigned int>:__n <- %R5
	@DEBUG_VALUE: __uninitialized_default_n<float *, unsigned int>:__n <- %R5
	@DEBUG_VALUE: __uninitialized_default_n_a<float *, unsigned int, float>:__n <- %R5
	@DEBUG_VALUE: _M_default_initialize:__n <- %R5
	@DEBUG_VALUE: allocate:__n <- %R5
	@DEBUG_VALUE: allocate:__n <- %R5
	@DEBUG_VALUE: _M_allocate:__n <- %R5
	@DEBUG_VALUE: _M_create_storage:__n <- %R5
	@DEBUG_VALUE: vector:__n <- %R5
	@DEBUG_VALUE: _Vector_base:__n <- %R5
	@DEBUG_VALUE: _M_data:this <- %R8
	@DEBUG_VALUE: _M_length:this <- %R8
	@DEBUG_VALUE: _M_set_length:this <- %R8
	@DEBUG_VALUE: _M_data:this <- %R8
	@DEBUG_VALUE: _M_construct<const char *>:this <- %R8
	@DEBUG_VALUE: _M_construct_aux<const char *>:this <- %R8
	@DEBUG_VALUE: _M_construct<const char *>:this <- %R8
	@DEBUG_VALUE: _M_local_data:this <- %R8
	@DEBUG_VALUE: basic_string:this <- %R8
	@DEBUG_VALUE: _M_data:this <- %R8
	@DEBUG_VALUE: _M_length:this <- %R8
	@DEBUG_VALUE: _M_set_length:this <- %R8
	@DEBUG_VALUE: _M_data:this <- %R8
	@DEBUG_VALUE: _M_construct<const char *>:this <- %R8
	@DEBUG_VALUE: _M_construct_aux<const char *>:this <- %R8
	@DEBUG_VALUE: _M_construct<const char *>:this <- %R8
	@DEBUG_VALUE: _M_local_data:this <- %R8
	@DEBUG_VALUE: basic_string:this <- %R8
	@DEBUG_VALUE: _M_data:this <- %R8
	@DEBUG_VALUE: _M_length:this <- %R8
	@DEBUG_VALUE: _M_set_length:this <- %R8
	@DEBUG_VALUE: _M_data:this <- %R8
	@DEBUG_VALUE: _M_construct<const char *>:this <- %R8
	@DEBUG_VALUE: _M_construct_aux<const char *>:this <- %R8
	@DEBUG_VALUE: _M_construct<const char *>:this <- %R8
	@DEBUG_VALUE: _M_local_data:this <- %R8
	@DEBUG_VALUE: basic_string:this <- %R8
	@DEBUG_VALUE: basic_string:this <- %R8
	@DEBUG_VALUE: _M_local_data:this <- %R8
	@DEBUG_VALUE: _M_construct<const char *>:this <- %R8
	@DEBUG_VALUE: _M_construct_aux<const char *>:this <- %R8
	@DEBUG_VALUE: _M_construct<const char *>:this <- %R8
	@DEBUG_VALUE: _M_data:this <- %R8
	@DEBUG_VALUE: _M_set_length:this <- %R8
	@DEBUG_VALUE: _M_length:this <- %R8
	@DEBUG_VALUE: _M_data:this <- %R8
.Ltmp51:
	mov	r4, r0
	.loc	7 113 2 discriminator 10 @ /root/Bela/projects/filter_matching2/render.cpp:113:2
	mov	r0, r10
	b	.LBB2_47
.Ltmp220:
.LBB2_46:
	@DEBUG_VALUE: _M_data:this <- %R8
	@DEBUG_VALUE: _M_length:this <- %R8
	@DEBUG_VALUE: _M_set_length:this <- %R8
	@DEBUG_VALUE: _M_data:this <- %R8
	@DEBUG_VALUE: _M_construct<const char *>:this <- %R8
	@DEBUG_VALUE: _M_construct_aux<const char *>:this <- %R8
	@DEBUG_VALUE: _M_construct<const char *>:this <- %R8
	@DEBUG_VALUE: _S_copy_chars:__p <- %R6
	@DEBUG_VALUE: _S_copy:__d <- %R6
	@DEBUG_VALUE: _M_local_data:this <- %R8
	@DEBUG_VALUE: basic_string:this <- %R8
	@DEBUG_VALUE: _M_data:this <- %R8
	@DEBUG_VALUE: _M_length:this <- %R8
	@DEBUG_VALUE: _M_set_length:this <- %R8
	@DEBUG_VALUE: _M_data:this <- %R8
	@DEBUG_VALUE: _M_construct<const char *>:this <- %R8
	@DEBUG_VALUE: _M_construct_aux<const char *>:this <- %R8
	@DEBUG_VALUE: _M_construct<const char *>:this <- %R8
	@DEBUG_VALUE: _S_copy_chars:__p <- %R6
	@DEBUG_VALUE: _S_copy:__d <- %R6
	@DEBUG_VALUE: _M_local_data:this <- %R8
	@DEBUG_VALUE: basic_string:this <- %R8
	@DEBUG_VALUE: _M_data:this <- %R8
	@DEBUG_VALUE: _M_length:this <- %R8
	@DEBUG_VALUE: _M_set_length:this <- %R8
	@DEBUG_VALUE: _M_data:this <- %R8
	@DEBUG_VALUE: _M_construct<const char *>:this <- %R8
	@DEBUG_VALUE: _M_construct_aux<const char *>:this <- %R8
	@DEBUG_VALUE: _M_construct<const char *>:this <- %R8
	@DEBUG_VALUE: _S_copy_chars:__p <- %R6
	@DEBUG_VALUE: _S_copy:__d <- %R6
	@DEBUG_VALUE: assign:__c1 <- %R6
	@DEBUG_VALUE: _M_local_data:this <- %R8
	@DEBUG_VALUE: basic_string:this <- %R8
	@DEBUG_VALUE: basic_string:this <- %R8
	@DEBUG_VALUE: _M_local_data:this <- %R8
	@DEBUG_VALUE: _M_construct<const char *>:this <- %R8
	@DEBUG_VALUE: _M_construct_aux<const char *>:this <- %R8
	@DEBUG_VALUE: _M_construct<const char *>:this <- %R8
	@DEBUG_VALUE: _M_data:this <- %R8
	@DEBUG_VALUE: _M_set_length:this <- %R8
	@DEBUG_VALUE: _M_length:this <- %R8
	@DEBUG_VALUE: _M_data:this <- %R8
.Ltmp46:
	mov	r4, r0
	.loc	7 112 2 discriminator 4 @ /root/Bela/projects/filter_matching2/render.cpp:112:2
	movw	r0, :lower16:.L_MergedGlobals.4
	movt	r0, :upper16:.L_MergedGlobals.4
.Ltmp221:
.LBB2_47:
	@DEBUG_VALUE: _M_data:this <- %R8
	@DEBUG_VALUE: _M_length:this <- %R8
	@DEBUG_VALUE: _M_set_length:this <- %R8
	@DEBUG_VALUE: _M_data:this <- %R8
	@DEBUG_VALUE: _M_construct<const char *>:this <- %R8
	@DEBUG_VALUE: _M_construct_aux<const char *>:this <- %R8
	@DEBUG_VALUE: _M_construct<const char *>:this <- %R8
	@DEBUG_VALUE: _M_local_data:this <- %R8
	@DEBUG_VALUE: basic_string:this <- %R8
	@DEBUG_VALUE: _M_data:this <- %R8
	@DEBUG_VALUE: _M_length:this <- %R8
	@DEBUG_VALUE: _M_set_length:this <- %R8
	@DEBUG_VALUE: _M_data:this <- %R8
	@DEBUG_VALUE: _M_construct<const char *>:this <- %R8
	@DEBUG_VALUE: _M_construct_aux<const char *>:this <- %R8
	@DEBUG_VALUE: _M_construct<const char *>:this <- %R8
	@DEBUG_VALUE: _M_local_data:this <- %R8
	@DEBUG_VALUE: basic_string:this <- %R8
	@DEBUG_VALUE: _M_data:this <- %R8
	@DEBUG_VALUE: _M_length:this <- %R8
	@DEBUG_VALUE: _M_set_length:this <- %R8
	@DEBUG_VALUE: _M_data:this <- %R8
	@DEBUG_VALUE: _M_construct<const char *>:this <- %R8
	@DEBUG_VALUE: _M_construct_aux<const char *>:this <- %R8
	@DEBUG_VALUE: _M_construct<const char *>:this <- %R8
	@DEBUG_VALUE: _M_local_data:this <- %R8
	@DEBUG_VALUE: basic_string:this <- %R8
	@DEBUG_VALUE: basic_string:this <- %R8
	@DEBUG_VALUE: _M_local_data:this <- %R8
	@DEBUG_VALUE: _M_construct<const char *>:this <- %R8
	@DEBUG_VALUE: _M_construct_aux<const char *>:this <- %R8
	@DEBUG_VALUE: _M_construct<const char *>:this <- %R8
	@DEBUG_VALUE: _M_data:this <- %R8
	@DEBUG_VALUE: _M_set_length:this <- %R8
	@DEBUG_VALUE: _M_length:this <- %R8
	@DEBUG_VALUE: _M_data:this <- %R8
	bl	__cxa_guard_abort
.Ltmp222:
.LBB2_48:
	@DEBUG_VALUE: basic_string:this <- %R8
	@DEBUG_VALUE: _M_local_data:this <- %R8
	@DEBUG_VALUE: _M_construct<const char *>:this <- %R8
	@DEBUG_VALUE: _M_construct_aux<const char *>:this <- %R8
	@DEBUG_VALUE: _M_construct<const char *>:this <- %R8
	@DEBUG_VALUE: _M_data:this <- %R8
	@DEBUG_VALUE: _M_set_length:this <- %R8
	@DEBUG_VALUE: _M_length:this <- %R8
	@DEBUG_VALUE: _M_data:this <- %R8
	mov	r0, r4
	mov	lr, pc
	b	_Unwind_Resume
.Ltmp223:
.LBB2_49:
	@DEBUG_VALUE: _M_data:this <- %R8
	@DEBUG_VALUE: _M_length:this <- %R8
	@DEBUG_VALUE: _M_set_length:this <- %R8
	@DEBUG_VALUE: _M_data:this <- %R8
	@DEBUG_VALUE: _M_construct<const char *>:this <- %R8
	@DEBUG_VALUE: _M_construct_aux<const char *>:this <- %R8
	@DEBUG_VALUE: _M_construct<const char *>:this <- %R8
	@DEBUG_VALUE: _S_copy_chars:__p <- %R6
	@DEBUG_VALUE: _S_copy:__d <- %R6
	@DEBUG_VALUE: _M_local_data:this <- %R8
	@DEBUG_VALUE: basic_string:this <- %R8
	@DEBUG_VALUE: _M_data:this <- %R8
	@DEBUG_VALUE: _M_length:this <- %R8
	@DEBUG_VALUE: _M_set_length:this <- %R8
	@DEBUG_VALUE: _M_data:this <- %R8
	@DEBUG_VALUE: _M_construct<const char *>:this <- %R8
	@DEBUG_VALUE: _M_construct_aux<const char *>:this <- %R8
	@DEBUG_VALUE: _M_construct<const char *>:this <- %R8
	@DEBUG_VALUE: _S_copy_chars:__p <- %R6
	@DEBUG_VALUE: _S_copy:__d <- %R6
	@DEBUG_VALUE: _M_local_data:this <- %R8
	@DEBUG_VALUE: basic_string:this <- %R8
	@DEBUG_VALUE: _M_data:this <- %R8
	@DEBUG_VALUE: _M_length:this <- %R8
	@DEBUG_VALUE: _M_set_length:this <- %R8
	@DEBUG_VALUE: _M_data:this <- %R8
	@DEBUG_VALUE: _M_construct<const char *>:this <- %R8
	@DEBUG_VALUE: _M_construct_aux<const char *>:this <- %R8
	@DEBUG_VALUE: _M_construct<const char *>:this <- %R8
	@DEBUG_VALUE: _S_copy_chars:__p <- %R6
	@DEBUG_VALUE: _S_copy:__d <- %R6
	@DEBUG_VALUE: assign:__c1 <- %R6
	@DEBUG_VALUE: _M_local_data:this <- %R8
	@DEBUG_VALUE: basic_string:this <- %R8
	@DEBUG_VALUE: basic_string:this <- %R8
	@DEBUG_VALUE: _M_local_data:this <- %R8
	@DEBUG_VALUE: _M_construct<const char *>:this <- %R8
	@DEBUG_VALUE: _M_construct_aux<const char *>:this <- %R8
	@DEBUG_VALUE: _M_construct<const char *>:this <- %R8
	@DEBUG_VALUE: _M_data:this <- %R8
	@DEBUG_VALUE: _M_set_length:this <- %R8
	@DEBUG_VALUE: _M_length:this <- %R8
	@DEBUG_VALUE: _M_data:this <- %R8
	@DEBUG_VALUE: guiCallback:json <- %R5
.Ltmp43:
	mov	r4, r0
.Ltmp224:
	.loc	36 136 28               @ /usr/bin/../lib/gcc/arm-linux-gnueabihf/6.3.0/../../../../include/c++/6.3.0/bits/basic_string.h:136:28
	ldr	r0, [sp, #8]
.Ltmp225:
	@DEBUG_VALUE: deallocate:__p <- %R0
	@DEBUG_VALUE: deallocate:__p <- %R0
	mov	r5, r1
.Ltmp226:
	.loc	36 180 6                @ /usr/bin/../lib/gcc/arm-linux-gnueabihf/6.3.0/../../../../include/c++/6.3.0/bits/basic_string.h:180:6
	cmp	r0, r6
	beq	.LBB2_51
.Ltmp227:
@ BB#50:
	@DEBUG_VALUE: deallocate:__p <- %R0
	@DEBUG_VALUE: deallocate:__p <- %R0
	@DEBUG_VALUE: _M_data:this <- %R8
	@DEBUG_VALUE: _M_length:this <- %R8
	@DEBUG_VALUE: _M_set_length:this <- %R8
	@DEBUG_VALUE: _M_data:this <- %R8
	@DEBUG_VALUE: _M_construct<const char *>:this <- %R8
	@DEBUG_VALUE: _M_construct_aux<const char *>:this <- %R8
	@DEBUG_VALUE: _M_construct<const char *>:this <- %R8
	@DEBUG_VALUE: _S_copy_chars:__p <- %R6
	@DEBUG_VALUE: _S_copy:__d <- %R6
	@DEBUG_VALUE: _M_local_data:this <- %R8
	@DEBUG_VALUE: basic_string:this <- %R8
	@DEBUG_VALUE: _M_data:this <- %R8
	@DEBUG_VALUE: _M_length:this <- %R8
	@DEBUG_VALUE: _M_set_length:this <- %R8
	@DEBUG_VALUE: _M_data:this <- %R8
	@DEBUG_VALUE: _M_construct<const char *>:this <- %R8
	@DEBUG_VALUE: _M_construct_aux<const char *>:this <- %R8
	@DEBUG_VALUE: _M_construct<const char *>:this <- %R8
	@DEBUG_VALUE: _S_copy_chars:__p <- %R6
	@DEBUG_VALUE: _S_copy:__d <- %R6
	@DEBUG_VALUE: _M_local_data:this <- %R8
	@DEBUG_VALUE: basic_string:this <- %R8
	@DEBUG_VALUE: _M_data:this <- %R8
	@DEBUG_VALUE: _M_length:this <- %R8
	@DEBUG_VALUE: _M_set_length:this <- %R8
	@DEBUG_VALUE: _M_data:this <- %R8
	@DEBUG_VALUE: _M_construct<const char *>:this <- %R8
	@DEBUG_VALUE: _M_construct_aux<const char *>:this <- %R8
	@DEBUG_VALUE: _M_construct<const char *>:this <- %R8
	@DEBUG_VALUE: _S_copy_chars:__p <- %R6
	@DEBUG_VALUE: _S_copy:__d <- %R6
	@DEBUG_VALUE: assign:__c1 <- %R6
	@DEBUG_VALUE: _M_local_data:this <- %R8
	@DEBUG_VALUE: basic_string:this <- %R8
	@DEBUG_VALUE: basic_string:this <- %R8
	@DEBUG_VALUE: _M_local_data:this <- %R8
	@DEBUG_VALUE: _M_construct<const char *>:this <- %R8
	@DEBUG_VALUE: _M_construct_aux<const char *>:this <- %R8
	@DEBUG_VALUE: _M_construct<const char *>:this <- %R8
	@DEBUG_VALUE: _M_data:this <- %R8
	@DEBUG_VALUE: _M_set_length:this <- %R8
	@DEBUG_VALUE: _M_length:this <- %R8
	@DEBUG_VALUE: _M_data:this <- %R8
	.loc	9 110 9                 @ /usr/bin/../lib/gcc/arm-linux-gnueabihf/6.3.0/../../../../include/c++/6.3.0/ext/new_allocator.h:110:9
	bl	_ZdlPv
.Ltmp228:
.LBB2_51:                               @ %_ZNSt7__cxx1112basic_stringIcSt11char_traitsIcESaIcEED2Ev.exit79
	@DEBUG_VALUE: _M_data:this <- %R8
	@DEBUG_VALUE: _M_length:this <- %R8
	@DEBUG_VALUE: _M_set_length:this <- %R8
	@DEBUG_VALUE: _M_data:this <- %R8
	@DEBUG_VALUE: _M_construct<const char *>:this <- %R8
	@DEBUG_VALUE: _M_construct_aux<const char *>:this <- %R8
	@DEBUG_VALUE: _M_construct<const char *>:this <- %R8
	@DEBUG_VALUE: _S_copy_chars:__p <- %R6
	@DEBUG_VALUE: _S_copy:__d <- %R6
	@DEBUG_VALUE: _M_local_data:this <- %R8
	@DEBUG_VALUE: basic_string:this <- %R8
	@DEBUG_VALUE: _M_data:this <- %R8
	@DEBUG_VALUE: _M_length:this <- %R8
	@DEBUG_VALUE: _M_set_length:this <- %R8
	@DEBUG_VALUE: _M_data:this <- %R8
	@DEBUG_VALUE: _M_construct<const char *>:this <- %R8
	@DEBUG_VALUE: _M_construct_aux<const char *>:this <- %R8
	@DEBUG_VALUE: _M_construct<const char *>:this <- %R8
	@DEBUG_VALUE: _S_copy_chars:__p <- %R6
	@DEBUG_VALUE: _S_copy:__d <- %R6
	@DEBUG_VALUE: _M_local_data:this <- %R8
	@DEBUG_VALUE: basic_string:this <- %R8
	@DEBUG_VALUE: _M_data:this <- %R8
	@DEBUG_VALUE: _M_length:this <- %R8
	@DEBUG_VALUE: _M_set_length:this <- %R8
	@DEBUG_VALUE: _M_data:this <- %R8
	@DEBUG_VALUE: _M_construct<const char *>:this <- %R8
	@DEBUG_VALUE: _M_construct_aux<const char *>:this <- %R8
	@DEBUG_VALUE: _M_construct<const char *>:this <- %R8
	@DEBUG_VALUE: _S_copy_chars:__p <- %R6
	@DEBUG_VALUE: _S_copy:__d <- %R6
	@DEBUG_VALUE: assign:__c1 <- %R6
	@DEBUG_VALUE: _M_local_data:this <- %R8
	@DEBUG_VALUE: basic_string:this <- %R8
	@DEBUG_VALUE: basic_string:this <- %R8
	@DEBUG_VALUE: _M_local_data:this <- %R8
	@DEBUG_VALUE: _M_construct<const char *>:this <- %R8
	@DEBUG_VALUE: _M_construct_aux<const char *>:this <- %R8
	@DEBUG_VALUE: _M_construct<const char *>:this <- %R8
	@DEBUG_VALUE: _M_data:this <- %R8
	@DEBUG_VALUE: _M_set_length:this <- %R8
	@DEBUG_VALUE: _M_length:this <- %R8
	@DEBUG_VALUE: _M_data:this <- %R8
	.loc	7 106 2 discriminator 1 @ /root/Bela/projects/filter_matching2/render.cpp:106:2
	cmp	r5, #1
	bne	.LBB2_48
.Ltmp229:
@ BB#52:
	@DEBUG_VALUE: _M_data:this <- %R8
	@DEBUG_VALUE: _M_length:this <- %R8
	@DEBUG_VALUE: _M_set_length:this <- %R8
	@DEBUG_VALUE: _M_data:this <- %R8
	@DEBUG_VALUE: _M_construct<const char *>:this <- %R8
	@DEBUG_VALUE: _M_construct_aux<const char *>:this <- %R8
	@DEBUG_VALUE: _M_construct<const char *>:this <- %R8
	@DEBUG_VALUE: _S_copy_chars:__p <- %R6
	@DEBUG_VALUE: _S_copy:__d <- %R6
	@DEBUG_VALUE: _M_local_data:this <- %R8
	@DEBUG_VALUE: basic_string:this <- %R8
	@DEBUG_VALUE: _M_data:this <- %R8
	@DEBUG_VALUE: _M_length:this <- %R8
	@DEBUG_VALUE: _M_set_length:this <- %R8
	@DEBUG_VALUE: _M_data:this <- %R8
	@DEBUG_VALUE: _M_construct<const char *>:this <- %R8
	@DEBUG_VALUE: _M_construct_aux<const char *>:this <- %R8
	@DEBUG_VALUE: _M_construct<const char *>:this <- %R8
	@DEBUG_VALUE: _S_copy_chars:__p <- %R6
	@DEBUG_VALUE: _S_copy:__d <- %R6
	@DEBUG_VALUE: _M_local_data:this <- %R8
	@DEBUG_VALUE: basic_string:this <- %R8
	@DEBUG_VALUE: _M_data:this <- %R8
	@DEBUG_VALUE: _M_length:this <- %R8
	@DEBUG_VALUE: _M_set_length:this <- %R8
	@DEBUG_VALUE: _M_data:this <- %R8
	@DEBUG_VALUE: _M_construct<const char *>:this <- %R8
	@DEBUG_VALUE: _M_construct_aux<const char *>:this <- %R8
	@DEBUG_VALUE: _M_construct<const char *>:this <- %R8
	@DEBUG_VALUE: _S_copy_chars:__p <- %R6
	@DEBUG_VALUE: _S_copy:__d <- %R6
	@DEBUG_VALUE: assign:__c1 <- %R6
	@DEBUG_VALUE: _M_local_data:this <- %R8
	@DEBUG_VALUE: basic_string:this <- %R8
	@DEBUG_VALUE: basic_string:this <- %R8
	@DEBUG_VALUE: _M_local_data:this <- %R8
	@DEBUG_VALUE: _M_construct<const char *>:this <- %R8
	@DEBUG_VALUE: _M_construct_aux<const char *>:this <- %R8
	@DEBUG_VALUE: _M_construct<const char *>:this <- %R8
	@DEBUG_VALUE: _M_data:this <- %R8
	@DEBUG_VALUE: _M_set_length:this <- %R8
	@DEBUG_VALUE: _M_length:this <- %R8
	@DEBUG_VALUE: _M_data:this <- %R8
	.loc	7 106 2 is_stmt 0 discriminator 3 @ /root/Bela/projects/filter_matching2/render.cpp:106:2
	mov	r0, r4
	bl	__cxa_begin_catch
	.loc	7 106 31 discriminator 5 @ /root/Bela/projects/filter_matching2/render.cpp:106:31
	bl	__cxa_end_catch
	b	.LBB2_12
.Ltmp230:
.LBB2_53:
	@DEBUG_VALUE: _S_copy:__s <- %R0
	@DEBUG_VALUE: _M_data:this <- %R8
	@DEBUG_VALUE: _M_length:this <- %R8
	@DEBUG_VALUE: _M_set_length:this <- %R8
	@DEBUG_VALUE: _M_data:this <- %R8
	@DEBUG_VALUE: _M_construct<const char *>:this <- %R8
	@DEBUG_VALUE: _M_construct_aux<const char *>:this <- %R8
	@DEBUG_VALUE: _M_construct<const char *>:this <- %R8
	@DEBUG_VALUE: _S_copy_chars:__p <- %R6
	@DEBUG_VALUE: _S_copy:__d <- %R6
	@DEBUG_VALUE: _M_local_data:this <- %R8
	@DEBUG_VALUE: basic_string:this <- %R8
	@DEBUG_VALUE: _M_data:this <- %R8
	@DEBUG_VALUE: _M_length:this <- %R8
	@DEBUG_VALUE: _M_set_length:this <- %R8
	@DEBUG_VALUE: _M_data:this <- %R8
	@DEBUG_VALUE: _M_construct<const char *>:this <- %R8
	@DEBUG_VALUE: _M_construct_aux<const char *>:this <- %R8
	@DEBUG_VALUE: _M_construct<const char *>:this <- %R8
	@DEBUG_VALUE: _S_copy_chars:__p <- %R6
	@DEBUG_VALUE: _S_copy:__d <- %R6
	@DEBUG_VALUE: assign:__c1 <- %R6
	@DEBUG_VALUE: _M_local_data:this <- %R8
	@DEBUG_VALUE: basic_string:this <- %R8
	@DEBUG_VALUE: basic_string:this <- %R8
	@DEBUG_VALUE: _M_local_data:this <- %R8
	@DEBUG_VALUE: _M_construct<const char *>:this <- %R8
	@DEBUG_VALUE: _M_construct_aux<const char *>:this <- %R8
	@DEBUG_VALUE: _M_construct<const char *>:this <- %R8
	@DEBUG_VALUE: _M_data:this <- %R8
	@DEBUG_VALUE: _M_set_length:this <- %R8
	@DEBUG_VALUE: _M_length:this <- %R8
	@DEBUG_VALUE: _M_data:this <- %R8
	@DEBUG_VALUE: guiCallback:json <- %R5
.Ltmp40:
	mov	r4, r0
.Ltmp231:
	.loc	36 136 28 is_stmt 1     @ /usr/bin/../lib/gcc/arm-linux-gnueabihf/6.3.0/../../../../include/c++/6.3.0/bits/basic_string.h:136:28
	ldr	r0, [sp, #8]
.Ltmp232:
	@DEBUG_VALUE: deallocate:__p <- %R0
	@DEBUG_VALUE: deallocate:__p <- %R0
	mov	r10, r1
.Ltmp233:
	.loc	36 180 6                @ /usr/bin/../lib/gcc/arm-linux-gnueabihf/6.3.0/../../../../include/c++/6.3.0/bits/basic_string.h:180:6
	cmp	r0, r6
	beq	.LBB2_55
.Ltmp234:
@ BB#54:
	@DEBUG_VALUE: deallocate:__p <- %R0
	@DEBUG_VALUE: deallocate:__p <- %R0
	@DEBUG_VALUE: _M_data:this <- %R8
	@DEBUG_VALUE: _M_length:this <- %R8
	@DEBUG_VALUE: _M_set_length:this <- %R8
	@DEBUG_VALUE: _M_data:this <- %R8
	@DEBUG_VALUE: _M_construct<const char *>:this <- %R8
	@DEBUG_VALUE: _M_construct_aux<const char *>:this <- %R8
	@DEBUG_VALUE: _M_construct<const char *>:this <- %R8
	@DEBUG_VALUE: _S_copy_chars:__p <- %R6
	@DEBUG_VALUE: _S_copy:__d <- %R6
	@DEBUG_VALUE: _M_local_data:this <- %R8
	@DEBUG_VALUE: basic_string:this <- %R8
	@DEBUG_VALUE: _M_data:this <- %R8
	@DEBUG_VALUE: _M_length:this <- %R8
	@DEBUG_VALUE: _M_set_length:this <- %R8
	@DEBUG_VALUE: _M_data:this <- %R8
	@DEBUG_VALUE: _M_construct<const char *>:this <- %R8
	@DEBUG_VALUE: _M_construct_aux<const char *>:this <- %R8
	@DEBUG_VALUE: _M_construct<const char *>:this <- %R8
	@DEBUG_VALUE: _S_copy_chars:__p <- %R6
	@DEBUG_VALUE: _S_copy:__d <- %R6
	@DEBUG_VALUE: assign:__c1 <- %R6
	@DEBUG_VALUE: _M_local_data:this <- %R8
	@DEBUG_VALUE: basic_string:this <- %R8
	@DEBUG_VALUE: basic_string:this <- %R8
	@DEBUG_VALUE: _M_local_data:this <- %R8
	@DEBUG_VALUE: _M_construct<const char *>:this <- %R8
	@DEBUG_VALUE: _M_construct_aux<const char *>:this <- %R8
	@DEBUG_VALUE: _M_construct<const char *>:this <- %R8
	@DEBUG_VALUE: _M_data:this <- %R8
	@DEBUG_VALUE: _M_set_length:this <- %R8
	@DEBUG_VALUE: _M_length:this <- %R8
	@DEBUG_VALUE: _M_data:this <- %R8
	@DEBUG_VALUE: guiCallback:json <- %R5
	.loc	9 110 9                 @ /usr/bin/../lib/gcc/arm-linux-gnueabihf/6.3.0/../../../../include/c++/6.3.0/ext/new_allocator.h:110:9
	bl	_ZdlPv
.Ltmp235:
.LBB2_55:                               @ %_ZNSt7__cxx1112basic_stringIcSt11char_traitsIcESaIcEED2Ev.exit64
	@DEBUG_VALUE: _M_data:this <- %R8
	@DEBUG_VALUE: _M_length:this <- %R8
	@DEBUG_VALUE: _M_set_length:this <- %R8
	@DEBUG_VALUE: _M_data:this <- %R8
	@DEBUG_VALUE: _M_construct<const char *>:this <- %R8
	@DEBUG_VALUE: _M_construct_aux<const char *>:this <- %R8
	@DEBUG_VALUE: _M_construct<const char *>:this <- %R8
	@DEBUG_VALUE: _S_copy_chars:__p <- %R6
	@DEBUG_VALUE: _S_copy:__d <- %R6
	@DEBUG_VALUE: _M_local_data:this <- %R8
	@DEBUG_VALUE: basic_string:this <- %R8
	@DEBUG_VALUE: _M_data:this <- %R8
	@DEBUG_VALUE: _M_length:this <- %R8
	@DEBUG_VALUE: _M_set_length:this <- %R8
	@DEBUG_VALUE: _M_data:this <- %R8
	@DEBUG_VALUE: _M_construct<const char *>:this <- %R8
	@DEBUG_VALUE: _M_construct_aux<const char *>:this <- %R8
	@DEBUG_VALUE: _M_construct<const char *>:this <- %R8
	@DEBUG_VALUE: _S_copy_chars:__p <- %R6
	@DEBUG_VALUE: _S_copy:__d <- %R6
	@DEBUG_VALUE: assign:__c1 <- %R6
	@DEBUG_VALUE: _M_local_data:this <- %R8
	@DEBUG_VALUE: basic_string:this <- %R8
	@DEBUG_VALUE: basic_string:this <- %R8
	@DEBUG_VALUE: _M_local_data:this <- %R8
	@DEBUG_VALUE: _M_construct<const char *>:this <- %R8
	@DEBUG_VALUE: _M_construct_aux<const char *>:this <- %R8
	@DEBUG_VALUE: _M_construct<const char *>:this <- %R8
	@DEBUG_VALUE: _M_data:this <- %R8
	@DEBUG_VALUE: _M_set_length:this <- %R8
	@DEBUG_VALUE: _M_length:this <- %R8
	@DEBUG_VALUE: _M_data:this <- %R8
	@DEBUG_VALUE: guiCallback:json <- %R5
	.loc	7 103 2 discriminator 1 @ /root/Bela/projects/filter_matching2/render.cpp:103:2
	cmp	r10, #1
	bne	.LBB2_48
.Ltmp236:
@ BB#56:
	@DEBUG_VALUE: _M_data:this <- %R8
	@DEBUG_VALUE: _M_length:this <- %R8
	@DEBUG_VALUE: _M_set_length:this <- %R8
	@DEBUG_VALUE: _M_data:this <- %R8
	@DEBUG_VALUE: _M_construct<const char *>:this <- %R8
	@DEBUG_VALUE: _M_construct_aux<const char *>:this <- %R8
	@DEBUG_VALUE: _M_construct<const char *>:this <- %R8
	@DEBUG_VALUE: _S_copy_chars:__p <- %R6
	@DEBUG_VALUE: _S_copy:__d <- %R6
	@DEBUG_VALUE: _M_local_data:this <- %R8
	@DEBUG_VALUE: basic_string:this <- %R8
	@DEBUG_VALUE: _M_data:this <- %R8
	@DEBUG_VALUE: _M_length:this <- %R8
	@DEBUG_VALUE: _M_set_length:this <- %R8
	@DEBUG_VALUE: _M_data:this <- %R8
	@DEBUG_VALUE: _M_construct<const char *>:this <- %R8
	@DEBUG_VALUE: _M_construct_aux<const char *>:this <- %R8
	@DEBUG_VALUE: _M_construct<const char *>:this <- %R8
	@DEBUG_VALUE: _S_copy_chars:__p <- %R6
	@DEBUG_VALUE: _S_copy:__d <- %R6
	@DEBUG_VALUE: assign:__c1 <- %R6
	@DEBUG_VALUE: _M_local_data:this <- %R8
	@DEBUG_VALUE: basic_string:this <- %R8
	@DEBUG_VALUE: basic_string:this <- %R8
	@DEBUG_VALUE: _M_local_data:this <- %R8
	@DEBUG_VALUE: _M_construct<const char *>:this <- %R8
	@DEBUG_VALUE: _M_construct_aux<const char *>:this <- %R8
	@DEBUG_VALUE: _M_construct<const char *>:this <- %R8
	@DEBUG_VALUE: _M_data:this <- %R8
	@DEBUG_VALUE: _M_set_length:this <- %R8
	@DEBUG_VALUE: _M_length:this <- %R8
	@DEBUG_VALUE: _M_data:this <- %R8
	@DEBUG_VALUE: guiCallback:json <- %R5
	.loc	7 103 2 is_stmt 0 discriminator 3 @ /root/Bela/projects/filter_matching2/render.cpp:103:2
	mov	r0, r4
	bl	__cxa_begin_catch
	.loc	7 103 31 discriminator 5 @ /root/Bela/projects/filter_matching2/render.cpp:103:31
	bl	__cxa_end_catch
	b	.LBB2_9
.Ltmp237:
.LBB2_57:
	@DEBUG_VALUE: _M_data:this <- %R8
	@DEBUG_VALUE: _M_length:this <- %R8
	@DEBUG_VALUE: _M_set_length:this <- %R8
	@DEBUG_VALUE: _M_data:this <- %R8
	@DEBUG_VALUE: _M_construct<const char *>:this <- %R8
	@DEBUG_VALUE: _M_construct_aux<const char *>:this <- %R8
	@DEBUG_VALUE: _M_construct<const char *>:this <- %R8
	@DEBUG_VALUE: _S_copy_chars:__p <- %R6
	@DEBUG_VALUE: _S_copy:__d <- %R6
	@DEBUG_VALUE: assign:__c1 <- %R6
	@DEBUG_VALUE: _M_local_data:this <- %R8
	@DEBUG_VALUE: basic_string:this <- %R8
	@DEBUG_VALUE: basic_string:this <- %R8
	@DEBUG_VALUE: _M_local_data:this <- %R8
	@DEBUG_VALUE: _M_construct<const char *>:this <- %R8
	@DEBUG_VALUE: _M_construct_aux<const char *>:this <- %R8
	@DEBUG_VALUE: _M_construct<const char *>:this <- %R8
	@DEBUG_VALUE: _M_data:this <- %R8
	@DEBUG_VALUE: _M_set_length:this <- %R8
	@DEBUG_VALUE: _M_length:this <- %R8
	@DEBUG_VALUE: _M_data:this <- %R8
	@DEBUG_VALUE: guiCallback:json <- %R5
.Ltmp37:
	mov	r4, r0
.Ltmp238:
	.loc	36 136 28 is_stmt 1     @ /usr/bin/../lib/gcc/arm-linux-gnueabihf/6.3.0/../../../../include/c++/6.3.0/bits/basic_string.h:136:28
	ldr	r0, [sp, #8]
.Ltmp239:
	@DEBUG_VALUE: deallocate:__p <- %R0
	@DEBUG_VALUE: deallocate:__p <- %R0
	mov	r10, r1
.Ltmp240:
	.loc	36 180 6                @ /usr/bin/../lib/gcc/arm-linux-gnueabihf/6.3.0/../../../../include/c++/6.3.0/bits/basic_string.h:180:6
	cmp	r0, r6
	beq	.LBB2_59
.Ltmp241:
@ BB#58:
	@DEBUG_VALUE: deallocate:__p <- %R0
	@DEBUG_VALUE: deallocate:__p <- %R0
	@DEBUG_VALUE: _M_data:this <- %R8
	@DEBUG_VALUE: _M_length:this <- %R8
	@DEBUG_VALUE: _M_set_length:this <- %R8
	@DEBUG_VALUE: _M_data:this <- %R8
	@DEBUG_VALUE: _M_construct<const char *>:this <- %R8
	@DEBUG_VALUE: _M_construct_aux<const char *>:this <- %R8
	@DEBUG_VALUE: _M_construct<const char *>:this <- %R8
	@DEBUG_VALUE: _S_copy_chars:__p <- %R6
	@DEBUG_VALUE: _S_copy:__d <- %R6
	@DEBUG_VALUE: assign:__c1 <- %R6
	@DEBUG_VALUE: _M_local_data:this <- %R8
	@DEBUG_VALUE: basic_string:this <- %R8
	@DEBUG_VALUE: basic_string:this <- %R8
	@DEBUG_VALUE: _M_local_data:this <- %R8
	@DEBUG_VALUE: _M_construct<const char *>:this <- %R8
	@DEBUG_VALUE: _M_construct_aux<const char *>:this <- %R8
	@DEBUG_VALUE: _M_construct<const char *>:this <- %R8
	@DEBUG_VALUE: _M_data:this <- %R8
	@DEBUG_VALUE: _M_set_length:this <- %R8
	@DEBUG_VALUE: _M_length:this <- %R8
	@DEBUG_VALUE: _M_data:this <- %R8
	@DEBUG_VALUE: guiCallback:json <- %R5
	.loc	9 110 9                 @ /usr/bin/../lib/gcc/arm-linux-gnueabihf/6.3.0/../../../../include/c++/6.3.0/ext/new_allocator.h:110:9
	bl	_ZdlPv
.Ltmp242:
.LBB2_59:                               @ %_ZNSt7__cxx1112basic_stringIcSt11char_traitsIcESaIcEED2Ev.exit54
	@DEBUG_VALUE: _M_data:this <- %R8
	@DEBUG_VALUE: _M_length:this <- %R8
	@DEBUG_VALUE: _M_set_length:this <- %R8
	@DEBUG_VALUE: _M_data:this <- %R8
	@DEBUG_VALUE: _M_construct<const char *>:this <- %R8
	@DEBUG_VALUE: _M_construct_aux<const char *>:this <- %R8
	@DEBUG_VALUE: _M_construct<const char *>:this <- %R8
	@DEBUG_VALUE: _S_copy_chars:__p <- %R6
	@DEBUG_VALUE: _S_copy:__d <- %R6
	@DEBUG_VALUE: assign:__c1 <- %R6
	@DEBUG_VALUE: _M_local_data:this <- %R8
	@DEBUG_VALUE: basic_string:this <- %R8
	@DEBUG_VALUE: basic_string:this <- %R8
	@DEBUG_VALUE: _M_local_data:this <- %R8
	@DEBUG_VALUE: _M_construct<const char *>:this <- %R8
	@DEBUG_VALUE: _M_construct_aux<const char *>:this <- %R8
	@DEBUG_VALUE: _M_construct<const char *>:this <- %R8
	@DEBUG_VALUE: _M_data:this <- %R8
	@DEBUG_VALUE: _M_set_length:this <- %R8
	@DEBUG_VALUE: _M_length:this <- %R8
	@DEBUG_VALUE: _M_data:this <- %R8
	@DEBUG_VALUE: guiCallback:json <- %R5
	.loc	7 100 2 discriminator 1 @ /root/Bela/projects/filter_matching2/render.cpp:100:2
	cmp	r10, #1
	bne	.LBB2_48
.Ltmp243:
@ BB#60:
	@DEBUG_VALUE: _M_data:this <- %R8
	@DEBUG_VALUE: _M_length:this <- %R8
	@DEBUG_VALUE: _M_set_length:this <- %R8
	@DEBUG_VALUE: _M_data:this <- %R8
	@DEBUG_VALUE: _M_construct<const char *>:this <- %R8
	@DEBUG_VALUE: _M_construct_aux<const char *>:this <- %R8
	@DEBUG_VALUE: _M_construct<const char *>:this <- %R8
	@DEBUG_VALUE: _S_copy_chars:__p <- %R6
	@DEBUG_VALUE: _S_copy:__d <- %R6
	@DEBUG_VALUE: assign:__c1 <- %R6
	@DEBUG_VALUE: _M_local_data:this <- %R8
	@DEBUG_VALUE: basic_string:this <- %R8
	@DEBUG_VALUE: basic_string:this <- %R8
	@DEBUG_VALUE: _M_local_data:this <- %R8
	@DEBUG_VALUE: _M_construct<const char *>:this <- %R8
	@DEBUG_VALUE: _M_construct_aux<const char *>:this <- %R8
	@DEBUG_VALUE: _M_construct<const char *>:this <- %R8
	@DEBUG_VALUE: _M_data:this <- %R8
	@DEBUG_VALUE: _M_set_length:this <- %R8
	@DEBUG_VALUE: _M_length:this <- %R8
	@DEBUG_VALUE: _M_data:this <- %R8
	@DEBUG_VALUE: guiCallback:json <- %R5
	.loc	7 100 2 is_stmt 0 discriminator 3 @ /root/Bela/projects/filter_matching2/render.cpp:100:2
	mov	r0, r4
	bl	__cxa_begin_catch
	.loc	7 100 31 discriminator 5 @ /root/Bela/projects/filter_matching2/render.cpp:100:31
	bl	__cxa_end_catch
	b	.LBB2_6
.Ltmp244:
.LBB2_61:
	@DEBUG_VALUE: basic_string:this <- %R8
	@DEBUG_VALUE: _M_local_data:this <- %R8
	@DEBUG_VALUE: _M_construct<const char *>:this <- %R8
	@DEBUG_VALUE: _M_construct_aux<const char *>:this <- %R8
	@DEBUG_VALUE: _M_construct<const char *>:this <- %R8
	@DEBUG_VALUE: _M_data:this <- %R8
	@DEBUG_VALUE: _M_set_length:this <- %R8
	@DEBUG_VALUE: _M_length:this <- %R8
	@DEBUG_VALUE: _M_data:this <- %R8
	@DEBUG_VALUE: guiCallback:json <- %R5
.Ltmp34:
	mov	r4, r0
.Ltmp245:
	.loc	36 136 28 is_stmt 1     @ /usr/bin/../lib/gcc/arm-linux-gnueabihf/6.3.0/../../../../include/c++/6.3.0/bits/basic_string.h:136:28
	ldr	r0, [sp, #8]
.Ltmp246:
	@DEBUG_VALUE: deallocate:__p <- %R0
	@DEBUG_VALUE: deallocate:__p <- %R0
	mov	r10, r1
.Ltmp247:
	.loc	36 180 6                @ /usr/bin/../lib/gcc/arm-linux-gnueabihf/6.3.0/../../../../include/c++/6.3.0/bits/basic_string.h:180:6
	cmp	r0, r6
	beq	.LBB2_63
.Ltmp248:
@ BB#62:
	@DEBUG_VALUE: deallocate:__p <- %R0
	@DEBUG_VALUE: deallocate:__p <- %R0
	@DEBUG_VALUE: basic_string:this <- %R8
	@DEBUG_VALUE: _M_local_data:this <- %R8
	@DEBUG_VALUE: _M_construct<const char *>:this <- %R8
	@DEBUG_VALUE: _M_construct_aux<const char *>:this <- %R8
	@DEBUG_VALUE: _M_construct<const char *>:this <- %R8
	@DEBUG_VALUE: _M_data:this <- %R8
	@DEBUG_VALUE: _M_set_length:this <- %R8
	@DEBUG_VALUE: _M_length:this <- %R8
	@DEBUG_VALUE: _M_data:this <- %R8
	@DEBUG_VALUE: guiCallback:json <- %R5
	.loc	9 110 9                 @ /usr/bin/../lib/gcc/arm-linux-gnueabihf/6.3.0/../../../../include/c++/6.3.0/ext/new_allocator.h:110:9
	bl	_ZdlPv
.Ltmp249:
.LBB2_63:                               @ %_ZNSt7__cxx1112basic_stringIcSt11char_traitsIcESaIcEED2Ev.exit46
	@DEBUG_VALUE: basic_string:this <- %R8
	@DEBUG_VALUE: _M_local_data:this <- %R8
	@DEBUG_VALUE: _M_construct<const char *>:this <- %R8
	@DEBUG_VALUE: _M_construct_aux<const char *>:this <- %R8
	@DEBUG_VALUE: _M_construct<const char *>:this <- %R8
	@DEBUG_VALUE: _M_data:this <- %R8
	@DEBUG_VALUE: _M_set_length:this <- %R8
	@DEBUG_VALUE: _M_length:this <- %R8
	@DEBUG_VALUE: _M_data:this <- %R8
	@DEBUG_VALUE: guiCallback:json <- %R5
	.loc	7 97 2 discriminator 1  @ /root/Bela/projects/filter_matching2/render.cpp:97:2
	cmp	r10, #1
	bne	.LBB2_48
.Ltmp250:
@ BB#64:
	@DEBUG_VALUE: basic_string:this <- %R8
	@DEBUG_VALUE: _M_local_data:this <- %R8
	@DEBUG_VALUE: _M_construct<const char *>:this <- %R8
	@DEBUG_VALUE: _M_construct_aux<const char *>:this <- %R8
	@DEBUG_VALUE: _M_construct<const char *>:this <- %R8
	@DEBUG_VALUE: _M_data:this <- %R8
	@DEBUG_VALUE: _M_set_length:this <- %R8
	@DEBUG_VALUE: _M_length:this <- %R8
	@DEBUG_VALUE: _M_data:this <- %R8
	@DEBUG_VALUE: guiCallback:json <- %R5
	.loc	7 97 2 is_stmt 0 discriminator 4 @ /root/Bela/projects/filter_matching2/render.cpp:97:2
	mov	r0, r4
	bl	__cxa_begin_catch
	.loc	7 97 31 discriminator 6 @ /root/Bela/projects/filter_matching2/render.cpp:97:31
	bl	__cxa_end_catch
	b	.LBB2_3
.Ltmp251:
.Lfunc_end2:
	.size	_Z11guiCallbackRSt3mapINSt7__cxx1112basic_stringIwSt11char_traitsIwESaIwEEEP9JSONValueSt4lessIS5_ESaISt4pairIKS5_S7_EEEPv, .Lfunc_end2-_Z11guiCallbackRSt3mapINSt7__cxx1112basic_stringIwSt11char_traitsIwESaIwEEEP9JSONValueSt4lessIS5_ESaISt4pairIKS5_S7_EEEPv
	.cfi_endproc
	.file	63 "/usr/bin/../lib/gcc/arm-linux-gnueabihf/6.3.0/../../../../include/c++/6.3.0/bits" "basic_string.tcc"
	.file	64 "/usr/bin/../lib/gcc/arm-linux-gnueabihf/6.3.0/../../../../include/c++/6.3.0/bits" "cpp_type_traits.h"
	.file	65 "/usr/bin/../lib/gcc/arm-linux-gnueabihf/6.3.0/../../../../include/c++/6.3.0/ext" "type_traits.h"
	.file	66 "/usr/bin/../lib/gcc/arm-linux-gnueabihf/6.3.0/../../../../include/c++/6.3.0/bits" "stl_uninitialized.h"
	.globl	__gxx_personality_v0
	.personality __gxx_personality_v0
	.handlerdata
	.p2align	2
GCC_except_table2:
.Lexception1:
	.byte	255                     @ @LPStart Encoding = omit
	.byte	0                       @ @TType Encoding = absptr
	.ascii	"\264\001"              @ @TType base offset
	.byte	3                       @ Call site Encoding = udata4
	.ascii	"\251\001"              @ Call site table length
	.long	.Ltmp32-.Lfunc_begin2   @ >> Call Site 1 <<
	.long	.Ltmp33-.Ltmp32         @   Call between .Ltmp32 and .Ltmp33
	.long	.Ltmp34-.Lfunc_begin2   @     jumps to .Ltmp34
	.byte	3                       @   On action: 2
	.long	.Ltmp35-.Lfunc_begin2   @ >> Call Site 2 <<
	.long	.Ltmp36-.Ltmp35         @   Call between .Ltmp35 and .Ltmp36
	.long	.Ltmp37-.Lfunc_begin2   @     jumps to .Ltmp37
	.byte	3                       @   On action: 2
	.long	.Ltmp38-.Lfunc_begin2   @ >> Call Site 3 <<
	.long	.Ltmp39-.Ltmp38         @   Call between .Ltmp38 and .Ltmp39
	.long	.Ltmp40-.Lfunc_begin2   @     jumps to .Ltmp40
	.byte	3                       @   On action: 2
	.long	.Ltmp41-.Lfunc_begin2   @ >> Call Site 4 <<
	.long	.Ltmp42-.Ltmp41         @   Call between .Ltmp41 and .Ltmp42
	.long	.Ltmp43-.Lfunc_begin2   @     jumps to .Ltmp43
	.byte	3                       @   On action: 2
	.long	.Ltmp42-.Lfunc_begin2   @ >> Call Site 5 <<
	.long	.Ltmp44-.Ltmp42         @   Call between .Ltmp42 and .Ltmp44
	.long	0                       @     has no landing pad
	.byte	0                       @   On action: cleanup
	.long	.Ltmp44-.Lfunc_begin2   @ >> Call Site 6 <<
	.long	.Ltmp45-.Ltmp44         @   Call between .Ltmp44 and .Ltmp45
	.long	.Ltmp46-.Lfunc_begin2   @     jumps to .Ltmp46
	.byte	0                       @   On action: cleanup
	.long	.Ltmp47-.Lfunc_begin2   @ >> Call Site 7 <<
	.long	.Ltmp48-.Ltmp47         @   Call between .Ltmp47 and .Ltmp48
	.long	.Ltmp51-.Lfunc_begin2   @     jumps to .Ltmp51
	.byte	0                       @   On action: cleanup
	.long	.Ltmp48-.Lfunc_begin2   @ >> Call Site 8 <<
	.long	.Ltmp52-.Ltmp48         @   Call between .Ltmp48 and .Ltmp52
	.long	0                       @     has no landing pad
	.byte	0                       @   On action: cleanup
	.long	.Ltmp52-.Lfunc_begin2   @ >> Call Site 9 <<
	.long	.Ltmp53-.Ltmp52         @   Call between .Ltmp52 and .Ltmp53
	.long	.Ltmp56-.Lfunc_begin2   @     jumps to .Ltmp56
	.byte	0                       @   On action: cleanup
	.long	.Ltmp53-.Lfunc_begin2   @ >> Call Site 10 <<
	.long	.Ltmp49-.Ltmp53         @   Call between .Ltmp53 and .Ltmp49
	.long	0                       @     has no landing pad
	.byte	0                       @   On action: cleanup
	.long	.Ltmp49-.Lfunc_begin2   @ >> Call Site 11 <<
	.long	.Ltmp50-.Ltmp49         @   Call between .Ltmp49 and .Ltmp50
	.long	.Ltmp51-.Lfunc_begin2   @     jumps to .Ltmp51
	.byte	0                       @   On action: cleanup
	.long	.Ltmp54-.Lfunc_begin2   @ >> Call Site 12 <<
	.long	.Ltmp55-.Ltmp54         @   Call between .Ltmp54 and .Ltmp55
	.long	.Ltmp56-.Lfunc_begin2   @     jumps to .Ltmp56
	.byte	0                       @   On action: cleanup
	.long	.Ltmp55-.Lfunc_begin2   @ >> Call Site 13 <<
	.long	.Lfunc_end2-.Ltmp55     @   Call between .Ltmp55 and .Lfunc_end2
	.long	0                       @     has no landing pad
	.byte	0                       @   On action: cleanup
	.byte	0                       @ >> Action Record 1 <<
                                        @   Cleanup
	.byte	0                       @   No further actions
	.byte	1                       @ >> Action Record 2 <<
                                        @   Catch TypeInfo 1
	.byte	125                     @   Continue to action 1
                                        @ >> Catch TypeInfos <<
	.long	_ZTISt9exception(target2) @ TypeInfo 1
	.p2align	2
	.fnend

	.p2align	2
	.type	_ZL16retrieveAsNumberRSt3mapINSt7__cxx1112basic_stringIwSt11char_traitsIwESaIwEEEP9JSONValueSt4lessIS5_ESaISt4pairIKS5_S7_EEERKNS1_IcS2_IcESaIcEEE,%function
_ZL16retrieveAsNumberRSt3mapINSt7__cxx1112basic_stringIwSt11char_traitsIwESaIwEEEP9JSONValueSt4lessIS5_ESaISt4pairIKS5_S7_EEERKNS1_IcS2_IcESaIcEEE: @ @_ZL16retrieveAsNumberRSt3mapINSt7__cxx1112basic_stringIwSt11char_traitsIwESaIwEEEP9JSONValueSt4lessIS5_ESaISt4pairIKS5_S7_EEERKNS1_IcS2_IcESaIcEEE
.Lfunc_begin3:
	.loc	7 76 0 is_stmt 1        @ /root/Bela/projects/filter_matching2/render.cpp:76:0
	.fnstart
	.cfi_startproc
@ BB#0:
	.save	{r4, r5, r6, r7, r8, r9, r10, r11, lr}
	push	{r4, r5, r6, r7, r8, r9, r10, r11, lr}
.Ltmp274:
	.cfi_def_cfa_offset 36
.Ltmp275:
	.cfi_offset lr, -4
.Ltmp276:
	.cfi_offset r11, -8
.Ltmp277:
	.cfi_offset r10, -12
.Ltmp278:
	.cfi_offset r9, -16
.Ltmp279:
	.cfi_offset r8, -20
.Ltmp280:
	.cfi_offset r7, -24
.Ltmp281:
	.cfi_offset r6, -28
.Ltmp282:
	.cfi_offset r5, -32
.Ltmp283:
	.cfi_offset r4, -36
	.setfp	r11, sp, #28
	add	r11, sp, #28
.Ltmp284:
	.cfi_def_cfa r11, 8
	.pad	#4
	sub	sp, sp, #4
	.vsave	{d8}
	vpush	{d8}
.Ltmp285:
	.cfi_offset d8, -48
	.pad	#80
	sub	sp, sp, #80
	@DEBUG_VALUE: retrieveAsNumber:json <- %R0
	@DEBUG_VALUE: retrieveAsNumber:str <- %R1
	mov	r5, r0
.Ltmp286:
	@DEBUG_VALUE: retrieveAsNumber:json <- %R5
	add	r0, sp, #56
.Ltmp287:
	@DEBUG_VALUE: _M_lower_bound:__k <- undef
	@DEBUG_VALUE: _M_lower_bound:__k <- %R0
	@DEBUG_VALUE: _M_lower_bound:__y <- %R10
	@DEBUG_VALUE: _Rb_tree_iterator:__x <- %R10
	@DEBUG_VALUE: _Rb_tree_iterator:__x <- %R10
	@DEBUG_VALUE: find:__k <- undef
	@DEBUG_VALUE: find:__k <- %R0
	@DEBUG_VALUE: find:__x <- undef
	@DEBUG_VALUE: find:__x <- %R0
	@DEBUG_VALUE: existsAndIsNumber:str <- undef
	@DEBUG_VALUE: existsAndIsNumber:str <- %R0
	@DEBUG_VALUE: retrieveAsNumber:ws <- undef
	@DEBUG_VALUE: retrieveAsNumber:ws <- [%R0+0]
	mov	r4, r1
.Ltmp288:
	@DEBUG_VALUE: retrieveAsNumber:str <- %R4
	.loc	7 77 20 prologue_end discriminator 1 @ /root/Bela/projects/filter_matching2/render.cpp:77:20
	bl	_ZN4JSON4s2wsERKNSt7__cxx1112basic_stringIcSt11char_traitsIcESaIcEEE
.Ltmp289:
	@DEBUG_VALUE: find:this <- %R5
	@DEBUG_VALUE: existsAndIsNumber:json <- %R5
	str	r5, [sp, #4]            @ 4-byte Spill
.Ltmp290:
	@DEBUG_VALUE: find:this <- [%SP+4]
	@DEBUG_VALUE: existsAndIsNumber:json <- [%SP+4]
	@DEBUG_VALUE: retrieveAsNumber:json <- [%SP+4]
	.loc	22 666 64               @ /usr/bin/../lib/gcc/arm-linux-gnueabihf/6.3.0/../../../../include/c++/6.3.0/bits/stl_tree.h:666:64
	ldr	r8, [r5, #8]
.Ltmp291:
	@DEBUG_VALUE: _M_lower_bound:__x <- %R8
	.loc	22 1653 7 discriminator 1 @ /usr/bin/../lib/gcc/arm-linux-gnueabihf/6.3.0/../../../../include/c++/6.3.0/bits/stl_tree.h:1653:7
	cmp	r8, #0
	beq	.LBB3_21
.Ltmp292:
@ BB#1:                                 @ %.lr.ph.lr.ph.i.i.i.i
	@DEBUG_VALUE: _M_lower_bound:__x <- %R8
	@DEBUG_VALUE: retrieveAsNumber:json <- [%SP+4]
	@DEBUG_VALUE: existsAndIsNumber:json <- [%SP+4]
	@DEBUG_VALUE: find:this <- [%SP+4]
	@DEBUG_VALUE: retrieveAsNumber:str <- %R4
	@DEBUG_VALUE: _Rb_tree_iterator:__x <- %R10
	@DEBUG_VALUE: _Rb_tree_iterator:__x <- %R10
	@DEBUG_VALUE: _M_lower_bound:__y <- %R10
	.loc	22 666 64               @ /usr/bin/../lib/gcc/arm-linux-gnueabihf/6.3.0/../../../../include/c++/6.3.0/bits/stl_tree.h:666:64
	ldr	r0, [sp, #4]            @ 4-byte Reload
.Ltmp293:
	.loc	36 136 28               @ /usr/bin/../lib/gcc/arm-linux-gnueabihf/6.3.0/../../../../include/c++/6.3.0/bits/basic_string.h:136:28
	ldr	r7, [sp, #56]
.Ltmp294:
	.loc	22 666 64               @ /usr/bin/../lib/gcc/arm-linux-gnueabihf/6.3.0/../../../../include/c++/6.3.0/bits/stl_tree.h:666:64
	add	r10, r0, #4
.Ltmp295:
	.loc	36 805 16               @ /usr/bin/../lib/gcc/arm-linux-gnueabihf/6.3.0/../../../../include/c++/6.3.0/bits/basic_string.h:805:16
	ldr	r6, [sp, #60]
.Ltmp296:
	@DEBUG_VALUE: compare:__osize <- %R6
	@DEBUG_VALUE: _S_compare:__n2 <- %R6
	@DEBUG_VALUE: compare:__size <- %R6
	@DEBUG_VALUE: _S_compare:__n1 <- %R6
	.loc	22 2321 22 discriminator 3 @ /usr/bin/../lib/gcc/arm-linux-gnueabihf/6.3.0/../../../../include/c++/6.3.0/bits/stl_tree.h:2321:22
	mov	r5, r10
.Ltmp297:
.LBB3_2:                                @ =>This Inner Loop Header: Depth=1
	@DEBUG_VALUE: _M_lower_bound:__x <- %R8
	@DEBUG_VALUE: _M_valptr:this <- %R8
	.loc	36 805 16               @ /usr/bin/../lib/gcc/arm-linux-gnueabihf/6.3.0/../../../../include/c++/6.3.0/bits/basic_string.h:805:16
	ldr	r9, [r8, #20]
.Ltmp298:
	@DEBUG_VALUE: compare:__size <- %R9
	@DEBUG_VALUE: _S_compare:__n1 <- %R9
	.loc	36 2421 26              @ /usr/bin/../lib/gcc/arm-linux-gnueabihf/6.3.0/../../../../include/c++/6.3.0/bits/basic_string.h:2421:26
	cmp	r9, r6
	mov	r2, r9
	movhi	r2, r6
.Ltmp299:
	@DEBUG_VALUE: compare:__len <- %R2
	@DEBUG_VALUE: compare:__n <- %R2
	.loc	38 351 6                @ /usr/bin/../lib/gcc/arm-linux-gnueabihf/6.3.0/../../../../include/c++/6.3.0/bits/char_traits.h:351:6
	cmp	r2, #0
	beq	.LBB3_4
.Ltmp300:
@ BB#3:                                 @ %_ZNSt11char_traitsIwE7compareEPKwS2_j.exit.i.i.i.i.i.i.i
                                        @   in Loop: Header=BB3_2 Depth=1
	@DEBUG_VALUE: compare:__n <- %R2
	@DEBUG_VALUE: compare:__len <- %R2
	@DEBUG_VALUE: _S_compare:__n1 <- %R9
	@DEBUG_VALUE: compare:__size <- %R9
	@DEBUG_VALUE: _M_valptr:this <- %R8
	@DEBUG_VALUE: _M_lower_bound:__x <- %R8
	.loc	36 136 28               @ /usr/bin/../lib/gcc/arm-linux-gnueabihf/6.3.0/../../../../include/c++/6.3.0/bits/basic_string.h:136:28
	ldr	r0, [r8, #16]
.Ltmp301:
	.loc	38 353 9                @ /usr/bin/../lib/gcc/arm-linux-gnueabihf/6.3.0/../../../../include/c++/6.3.0/bits/char_traits.h:353:9
	mov	r1, r7
	bl	wmemcmp
.Ltmp302:
	@DEBUG_VALUE: compare:__r <- %R0
	.loc	36 2424 6               @ /usr/bin/../lib/gcc/arm-linux-gnueabihf/6.3.0/../../../../include/c++/6.3.0/bits/basic_string.h:2424:6
	cmp	r0, #0
.Ltmp303:
	.loc	36 352 51               @ /usr/bin/../lib/gcc/arm-linux-gnueabihf/6.3.0/../../../../include/c++/6.3.0/bits/basic_string.h:352:51
	subeq	r0, r9, r6
.Ltmp304:
	@DEBUG_VALUE: _S_compare:__d <- %R0
	@DEBUG_VALUE: compare:__r <- %R0
	b	.LBB3_5
.Ltmp305:
.LBB3_4:                                @ %_ZNSt11char_traitsIwE7compareEPKwS2_j.exit.thread.i.i.i.i.i.i.i
                                        @   in Loop: Header=BB3_2 Depth=1
	@DEBUG_VALUE: compare:__n <- %R2
	@DEBUG_VALUE: compare:__len <- %R2
	@DEBUG_VALUE: _S_compare:__n1 <- %R9
	@DEBUG_VALUE: compare:__size <- %R9
	@DEBUG_VALUE: _M_valptr:this <- %R8
	@DEBUG_VALUE: _M_lower_bound:__x <- %R8
	sub	r0, r9, r6
.Ltmp306:
	@DEBUG_VALUE: _S_compare:__d <- %R0
	@DEBUG_VALUE: compare:__r <- %R0
.LBB3_5:                                @ %_ZNKSt4lessINSt7__cxx1112basic_stringIwSt11char_traitsIwESaIwEEEEclERKS5_S8_.exit.i.i.i.i
                                        @   in Loop: Header=BB3_2 Depth=1
	@DEBUG_VALUE: _S_compare:__d <- %R0
	@DEBUG_VALUE: compare:__r <- %R0
	@DEBUG_VALUE: _S_compare:__n1 <- %R9
	@DEBUG_VALUE: compare:__size <- %R9
	@DEBUG_VALUE: _M_valptr:this <- %R8
	@DEBUG_VALUE: _M_lower_bound:__x <- %R8
	.loc	22 1654 6               @ /usr/bin/../lib/gcc/arm-linux-gnueabihf/6.3.0/../../../../include/c++/6.3.0/bits/stl_tree.h:1654:6
	cmp	r0, #0
	bge	.LBB3_7
.Ltmp307:
@ BB#6:                                 @   in Loop: Header=BB3_2 Depth=1
	@DEBUG_VALUE: _S_compare:__d <- %R0
	@DEBUG_VALUE: compare:__r <- %R0
	@DEBUG_VALUE: _S_compare:__n1 <- %R9
	@DEBUG_VALUE: compare:__size <- %R9
	@DEBUG_VALUE: _M_valptr:this <- %R8
	@DEBUG_VALUE: _M_lower_bound:__x <- %R8
	.loc	22 701 45               @ /usr/bin/../lib/gcc/arm-linux-gnueabihf/6.3.0/../../../../include/c++/6.3.0/bits/stl_tree.h:701:45
	ldr	r8, [r8, #12]
.Ltmp308:
	@DEBUG_VALUE: _M_lower_bound:__x <- %R8
	.loc	22 1653 7 discriminator 1 @ /usr/bin/../lib/gcc/arm-linux-gnueabihf/6.3.0/../../../../include/c++/6.3.0/bits/stl_tree.h:1653:7
	cmp	r8, #0
	bne	.LBB3_2
	b	.LBB3_8
.Ltmp309:
.LBB3_7:                                @ %.outer.i.i.i.i
                                        @   in Loop: Header=BB3_2 Depth=1
	@DEBUG_VALUE: _S_compare:__d <- %R0
	@DEBUG_VALUE: compare:__r <- %R0
	@DEBUG_VALUE: _S_compare:__n1 <- %R9
	@DEBUG_VALUE: compare:__size <- %R9
	@DEBUG_VALUE: _M_valptr:this <- %R8
	@DEBUG_VALUE: _M_lower_bound:__x <- %R8
	@DEBUG_VALUE: _M_lower_bound:__y <- %R8
	@DEBUG_VALUE: _S_right:__x <- %R8
	@DEBUG_VALUE: _S_left:__x <- %R8
	.loc	22 693 45               @ /usr/bin/../lib/gcc/arm-linux-gnueabihf/6.3.0/../../../../include/c++/6.3.0/bits/stl_tree.h:693:45
	ldr	r0, [r8, #8]
.Ltmp310:
	@DEBUG_VALUE: _M_lower_bound:__x <- %R0
	mov	r5, r8
.Ltmp311:
	@DEBUG_VALUE: _S_left:__x <- %R5
	@DEBUG_VALUE: _S_right:__x <- %R5
	@DEBUG_VALUE: _M_lower_bound:__y <- %R5
	.loc	22 1653 7 discriminator 1 @ /usr/bin/../lib/gcc/arm-linux-gnueabihf/6.3.0/../../../../include/c++/6.3.0/bits/stl_tree.h:1653:7
	cmp	r0, #0
.Ltmp312:
	.loc	22 2321 22 discriminator 3 @ /usr/bin/../lib/gcc/arm-linux-gnueabihf/6.3.0/../../../../include/c++/6.3.0/bits/stl_tree.h:2321:22
	mov	r8, r0
.Ltmp313:
	@DEBUG_VALUE: _M_lower_bound:__x <- %R8
	bne	.LBB3_2
.Ltmp314:
.LBB3_8:                                @ %_ZNSt8_Rb_treeINSt7__cxx1112basic_stringIwSt11char_traitsIwESaIwEEESt4pairIKS5_P9JSONValueESt10_Select1stISA_ESt4lessIS5_ESaISA_EE14_M_lower_boundEPSt13_Rb_tree_nodeISA_EPSt18_Rb_tree_node_baseRS7_.exit.i.i.i
	@DEBUG_VALUE: _S_compare:__n1 <- %R9
	@DEBUG_VALUE: compare:__size <- %R9
	@DEBUG_VALUE: _M_lower_bound:__x <- %R8
	@DEBUG_VALUE: _S_key:__x <- %R5
	.loc	22 2323 8               @ /usr/bin/../lib/gcc/arm-linux-gnueabihf/6.3.0/../../../../include/c++/6.3.0/bits/stl_tree.h:2323:8
	cmp	r5, r10
	beq	.LBB3_21
.Ltmp315:
@ BB#9:
	@DEBUG_VALUE: _S_key:__x <- %R5
	@DEBUG_VALUE: _S_compare:__n1 <- %R9
	@DEBUG_VALUE: compare:__size <- %R9
	@DEBUG_VALUE: _M_lower_bound:__x <- %R8
	mov	r8, r4
.Ltmp316:
	.loc	36 805 16               @ /usr/bin/../lib/gcc/arm-linux-gnueabihf/6.3.0/../../../../include/c++/6.3.0/bits/basic_string.h:805:16
	ldr	r4, [r5, #20]
.Ltmp317:
	@DEBUG_VALUE: compare:__osize <- %R4
	@DEBUG_VALUE: _S_compare:__n2 <- %R4
	.loc	36 2421 26              @ /usr/bin/../lib/gcc/arm-linux-gnueabihf/6.3.0/../../../../include/c++/6.3.0/bits/basic_string.h:2421:26
	mov	r2, r6
	cmp	r6, r4
	movhi	r2, r4
.Ltmp318:
	@DEBUG_VALUE: compare:__len <- %R2
	@DEBUG_VALUE: compare:__n <- %R2
	.loc	38 351 6                @ /usr/bin/../lib/gcc/arm-linux-gnueabihf/6.3.0/../../../../include/c++/6.3.0/bits/char_traits.h:351:6
	cmp	r2, #0
	beq	.LBB3_11
.Ltmp319:
@ BB#10:                                @ %_ZNSt11char_traitsIwE7compareEPKwS2_j.exit.i.i.i.i.i.i
	@DEBUG_VALUE: compare:__n <- %R2
	@DEBUG_VALUE: compare:__len <- %R2
	@DEBUG_VALUE: _S_compare:__n2 <- %R4
	@DEBUG_VALUE: compare:__osize <- %R4
	@DEBUG_VALUE: _S_key:__x <- %R5
	@DEBUG_VALUE: _S_compare:__n1 <- %R9
	@DEBUG_VALUE: compare:__size <- %R9
	.loc	36 136 28               @ /usr/bin/../lib/gcc/arm-linux-gnueabihf/6.3.0/../../../../include/c++/6.3.0/bits/basic_string.h:136:28
	ldr	r1, [r5, #16]
.Ltmp320:
	.loc	38 353 9                @ /usr/bin/../lib/gcc/arm-linux-gnueabihf/6.3.0/../../../../include/c++/6.3.0/bits/char_traits.h:353:9
	mov	r0, r7
	bl	wmemcmp
.Ltmp321:
	@DEBUG_VALUE: compare:__r <- %R0
	.loc	36 2424 6               @ /usr/bin/../lib/gcc/arm-linux-gnueabihf/6.3.0/../../../../include/c++/6.3.0/bits/basic_string.h:2424:6
	cmp	r0, #0
.Ltmp322:
	.loc	36 352 51               @ /usr/bin/../lib/gcc/arm-linux-gnueabihf/6.3.0/../../../../include/c++/6.3.0/bits/basic_string.h:352:51
	subeq	r0, r6, r4
.Ltmp323:
	@DEBUG_VALUE: _S_compare:__d <- %R0
	@DEBUG_VALUE: compare:__r <- %R0
	b	.LBB3_12
.Ltmp324:
.LBB3_11:                               @ %_ZNSt11char_traitsIwE7compareEPKwS2_j.exit.thread.i.i.i.i.i.i
	@DEBUG_VALUE: compare:__n <- %R2
	@DEBUG_VALUE: compare:__len <- %R2
	@DEBUG_VALUE: _S_compare:__n2 <- %R4
	@DEBUG_VALUE: compare:__osize <- %R4
	@DEBUG_VALUE: _S_key:__x <- %R5
	@DEBUG_VALUE: _S_compare:__n1 <- %R9
	@DEBUG_VALUE: compare:__size <- %R9
	sub	r0, r6, r4
.Ltmp325:
	@DEBUG_VALUE: _S_compare:__d <- %R0
	@DEBUG_VALUE: compare:__r <- %R0
.LBB3_12:                               @ %_ZNSt3mapINSt7__cxx1112basic_stringIwSt11char_traitsIwESaIwEEEP9JSONValueSt4lessIS5_ESaISt4pairIKS5_S7_EEE4findERSB_.exit.i
	@DEBUG_VALUE: _S_compare:__d <- %R0
	@DEBUG_VALUE: compare:__r <- %R0
	@DEBUG_VALUE: _S_compare:__n2 <- %R4
	@DEBUG_VALUE: compare:__osize <- %R4
	@DEBUG_VALUE: _S_key:__x <- %R5
	@DEBUG_VALUE: _S_compare:__n1 <- %R9
	@DEBUG_VALUE: compare:__size <- %R9
	.loc	22 2322 14 discriminator 1 @ /usr/bin/../lib/gcc/arm-linux-gnueabihf/6.3.0/../../../../include/c++/6.3.0/bits/stl_tree.h:2322:14
	cmp	r0, #0
	mov	r4, r8
.Ltmp326:
	movlt	r5, r10
.Ltmp327:
	.loc	7 73 39                 @ /root/Bela/projects/filter_matching2/render.cpp:73:39
	cmp	r5, r10
	beq	.LBB3_21
.Ltmp328:
@ BB#13:
	@DEBUG_VALUE: _S_compare:__d <- %R0
	@DEBUG_VALUE: compare:__r <- %R0
	@DEBUG_VALUE: _S_compare:__n1 <- %R9
	@DEBUG_VALUE: compare:__size <- %R9
	.loc	7 73 42 is_stmt 0 discriminator 1 @ /root/Bela/projects/filter_matching2/render.cpp:73:42
.Ltmp252:
	ldr	r0, [sp, #4]            @ 4-byte Reload
.Ltmp329:
	add	r1, sp, #56
.Ltmp330:
	@DEBUG_VALUE: _M_data:this <- %R1
	bl	_ZNSt3mapINSt7__cxx1112basic_stringIwSt11char_traitsIwESaIwEEEP9JSONValueSt4lessIS5_ESaISt4pairIKS5_S7_EEEixERSB_
.Ltmp331:
.Ltmp253:
.Ltmp332:
@ BB#14:                                @ %.noexc
	@DEBUG_VALUE: _S_compare:__n1 <- %R9
	@DEBUG_VALUE: compare:__size <- %R9
	ldr	r0, [r0]
	.loc	7 73 53 discriminator 6 @ /root/Bela/projects/filter_matching2/render.cpp:73:53
.Ltmp254:
	bl	_ZNK9JSONValue8IsNumberEv
.Ltmp255:
.Ltmp333:
@ BB#15:                                @ %_ZL17existsAndIsNumberRSt3mapINSt7__cxx1112basic_stringIwSt11char_traitsIwESaIwEEEP9JSONValueSt4lessIS5_ESaISt4pairIKS5_S7_EEERSB_.exit
	@DEBUG_VALUE: _S_compare:__n1 <- %R9
	@DEBUG_VALUE: compare:__size <- %R9
	.loc	7 78 5 is_stmt 1 discriminator 1 @ /root/Bela/projects/filter_matching2/render.cpp:78:5
	cmp	r0, #1
	bne	.LBB3_21
.Ltmp334:
@ BB#16:
	@DEBUG_VALUE: _S_compare:__n1 <- %R9
	@DEBUG_VALUE: compare:__size <- %R9
	.loc	7 80 16                 @ /root/Bela/projects/filter_matching2/render.cpp:80:16
.Ltmp256:
	add	r7, sp, #56
	ldr	r0, [sp, #4]            @ 4-byte Reload
	mov	r1, r7
	bl	_ZNSt3mapINSt7__cxx1112basic_stringIwSt11char_traitsIwESaIwEEEP9JSONValueSt4lessIS5_ESaISt4pairIKS5_S7_EEEixERSB_
.Ltmp257:
.Ltmp335:
@ BB#17:
	@DEBUG_VALUE: _S_compare:__n1 <- %R9
	@DEBUG_VALUE: compare:__size <- %R9
	.loc	7 80 16 is_stmt 0 discriminator 1 @ /root/Bela/projects/filter_matching2/render.cpp:80:16
	ldr	r0, [r0]
	.loc	7 80 26 discriminator 1 @ /root/Bela/projects/filter_matching2/render.cpp:80:26
.Ltmp258:
	bl	_ZNK9JSONValue8AsNumberEv
	vmov.f64	d8, d0
.Ltmp259:
.Ltmp336:
@ BB#18:
	@DEBUG_VALUE: _S_compare:__n1 <- %R9
	@DEBUG_VALUE: compare:__size <- %R9
	@DEBUG_VALUE: _M_data:this <- %R4
	@DEBUG_VALUE: ret <- %D8
	.loc	7 81 3 is_stmt 1        @ /root/Bela/projects/filter_matching2/render.cpp:81:3
	vmov	r2, r3, d8
.Ltmp337:
	.loc	36 136 28               @ /usr/bin/../lib/gcc/arm-linux-gnueabihf/6.3.0/../../../../include/c++/6.3.0/bits/basic_string.h:136:28
	ldr	r1, [r4]
.Ltmp338:
	.loc	7 81 3                  @ /root/Bela/projects/filter_matching2/render.cpp:81:3
	movw	r0, :lower16:.L.str.16
	movt	r0, :upper16:.L.str.16
	bl	printf
.Ltmp339:
	.loc	36 136 28               @ /usr/bin/../lib/gcc/arm-linux-gnueabihf/6.3.0/../../../../include/c++/6.3.0/bits/basic_string.h:136:28
	ldr	r0, [sp, #56]
.Ltmp340:
	@DEBUG_VALUE: _M_local_data:this <- %R7
	@DEBUG_VALUE: _M_data:this <- %R7
	@DEBUG_VALUE: _M_is_local:this <- %R7
	@DEBUG_VALUE: _M_dispose:this <- %R7
	@DEBUG_VALUE: ~basic_string:this <- %R7
	@DEBUG_VALUE: retrieveAsNumber:ws <- [%R7+0]
	.loc	36 152 56               @ /usr/bin/../lib/gcc/arm-linux-gnueabihf/6.3.0/../../../../include/c++/6.3.0/bits/basic_string.h:152:56
	add	r1, r7, #8
.Ltmp341:
	.loc	36 180 6                @ /usr/bin/../lib/gcc/arm-linux-gnueabihf/6.3.0/../../../../include/c++/6.3.0/bits/basic_string.h:180:6
	cmp	r0, r1
	beq	.LBB3_20
.Ltmp342:
@ BB#19:
	@DEBUG_VALUE: retrieveAsNumber:ws <- [%R7+0]
	@DEBUG_VALUE: ~basic_string:this <- %R7
	@DEBUG_VALUE: _M_dispose:this <- %R7
	@DEBUG_VALUE: _M_is_local:this <- %R7
	@DEBUG_VALUE: _M_data:this <- %R7
	@DEBUG_VALUE: _M_local_data:this <- %R7
	@DEBUG_VALUE: ret <- %D8
	@DEBUG_VALUE: _M_data:this <- %R4
	@DEBUG_VALUE: _S_compare:__n1 <- %R9
	@DEBUG_VALUE: compare:__size <- %R9
	.loc	9 110 9                 @ /usr/bin/../lib/gcc/arm-linux-gnueabihf/6.3.0/../../../../include/c++/6.3.0/ext/new_allocator.h:110:9
	bl	_ZdlPv
.Ltmp343:
.LBB3_20:                               @ %_ZNSt7__cxx1112basic_stringIwSt11char_traitsIwESaIwEED2Ev.exit
	@DEBUG_VALUE: retrieveAsNumber:ws <- [%R7+0]
	@DEBUG_VALUE: ~basic_string:this <- %R7
	@DEBUG_VALUE: _M_dispose:this <- %R7
	@DEBUG_VALUE: _M_is_local:this <- %R7
	@DEBUG_VALUE: _M_data:this <- %R7
	@DEBUG_VALUE: _M_local_data:this <- %R7
	@DEBUG_VALUE: ret <- %D8
	@DEBUG_VALUE: _M_data:this <- %R4
	@DEBUG_VALUE: _S_compare:__n1 <- %R9
	@DEBUG_VALUE: compare:__size <- %R9
	.loc	7 86 1                  @ /root/Bela/projects/filter_matching2/render.cpp:86:1
	vmov.f64	d0, d8
	sub	sp, r11, #40
	vpop	{d8}
.Ltmp344:
	add	sp, sp, #4
	pop	{r4, r5, r6, r7, r8, r9, r10, r11, pc}
.Ltmp345:
.LBB3_21:                               @ %_ZL17existsAndIsNumberRSt3mapINSt7__cxx1112basic_stringIwSt11char_traitsIwESaIwEEEP9JSONValueSt4lessIS5_ESaISt4pairIKS5_S7_EEERSB_.exit.thread
	.loc	7 85 3                  @ /root/Bela/projects/filter_matching2/render.cpp:85:3
	mov	r0, #8
	bl	__cxa_allocate_exception
	mov	r6, r0
	.loc	7 85 37 is_stmt 0       @ /root/Bela/projects/filter_matching2/render.cpp:85:37
.Ltmp261:
	add	r8, sp, #8
	movw	r1, :lower16:.L.str.17
	movt	r1, :upper16:.L.str.17
	mov	r2, r4
	mov	r0, r8
	bl	_ZStplIcSt11char_traitsIcESaIcEENSt7__cxx1112basic_stringIT_T0_T1_EEPKS5_RKS8_
.Ltmp262:
@ BB#22:
.Ltmp346:
	@DEBUG_VALUE: append:__n <- 10
	@DEBUG_VALUE: _M_check_length:__n1 <- 0
	@DEBUG_VALUE: _M_check_length:__n2 <- 10
	.loc	36 805 16 is_stmt 1     @ /usr/bin/../lib/gcc/arm-linux-gnueabihf/6.3.0/../../../../include/c++/6.3.0/bits/basic_string.h:805:16
	ldr	r0, [sp, #12]
.Ltmp347:
	.loc	36 271 23               @ /usr/bin/../lib/gcc/arm-linux-gnueabihf/6.3.0/../../../../include/c++/6.3.0/bits/basic_string.h:271:23
	mvn	r1, #-2147483648
	sub	r0, r1, r0
.Ltmp348:
	.loc	36 271 6 is_stmt 0      @ /usr/bin/../lib/gcc/arm-linux-gnueabihf/6.3.0/../../../../include/c++/6.3.0/bits/basic_string.h:271:6
	cmp	r0, #9
	bhi	.LBB3_25
@ BB#23:
.Ltmp349:
	.loc	36 272 4 is_stmt 1      @ /usr/bin/../lib/gcc/arm-linux-gnueabihf/6.3.0/../../../../include/c++/6.3.0/bits/basic_string.h:272:4
.Ltmp271:
	movw	r0, :lower16:.L.str.20
	movt	r0, :upper16:.L.str.20
.Ltmp350:
	@DEBUG_VALUE: _M_check_length:__s <- %R0
	mov	lr, pc
	b	_ZSt20__throw_length_errorPKc
.Ltmp351:
.Ltmp272:
.Ltmp352:
@ BB#24:                                @ %.noexc18
.LBB3_25:                               @ %_ZNSt7__cxx1112basic_stringIcSt11char_traitsIcESaIcEE6appendEPKc.exit.i
	.loc	36 1130 9               @ /usr/bin/../lib/gcc/arm-linux-gnueabihf/6.3.0/../../../../include/c++/6.3.0/bits/basic_string.h:1130:9
.Ltmp264:
	movw	r1, :lower16:.L.str.18
	add	r0, sp, #8
	movt	r1, :upper16:.L.str.18
.Ltmp353:
	@DEBUG_VALUE: append:__s <- %R1
	mov	r2, #10
	bl	_ZNSt7__cxx1112basic_stringIcSt11char_traitsIcESaIcEE9_M_appendEPKcj
.Ltmp354:
.Ltmp265:
.Ltmp355:
@ BB#26:                                @ %.noexc19
	add	r1, sp, #32
.Ltmp356:
	@DEBUG_VALUE: _M_local_data:this <- %R1
	.loc	36 142 51               @ /usr/bin/../lib/gcc/arm-linux-gnueabihf/6.3.0/../../../../include/c++/6.3.0/bits/basic_string.h:142:51
	add	r7, r1, #8
.Ltmp357:
	@DEBUG_VALUE: _M_data:this <- %R0
	.loc	36 110 25               @ /usr/bin/../lib/gcc/arm-linux-gnueabihf/6.3.0/../../../../include/c++/6.3.0/bits/basic_string.h:110:25
	str	r7, [sp, #32]
.Ltmp358:
	.loc	36 136 28               @ /usr/bin/../lib/gcc/arm-linux-gnueabihf/6.3.0/../../../../include/c++/6.3.0/bits/basic_string.h:136:28
	mov	r1, r0
.Ltmp359:
	ldr	r2, [r1], #8
.Ltmp360:
	@DEBUG_VALUE: _M_data:__p <- %R2
	@DEBUG_VALUE: _M_local_data:this <- %R0
	.loc	36 479 6 discriminator 1 @ /usr/bin/../lib/gcc/arm-linux-gnueabihf/6.3.0/../../../../include/c++/6.3.0/bits/basic_string.h:479:6
	cmp	r2, r1
.Ltmp361:
	@DEBUG_VALUE: copy:__s2 <- %R1
	@DEBUG_VALUE: _M_data:__p <- %R1
	@DEBUG_VALUE: assign:__c1 <- %R1
	bne	.LBB3_28
.Ltmp362:
@ BB#27:
	@DEBUG_VALUE: assign:__c1 <- %R1
	@DEBUG_VALUE: _M_data:__p <- %R1
	@DEBUG_VALUE: copy:__s2 <- %R1
	@DEBUG_VALUE: _M_local_data:this <- %R0
	@DEBUG_VALUE: _M_data:__p <- %R2
	@DEBUG_VALUE: _M_data:this <- %R0
	.loc	38 290 33               @ /usr/bin/../lib/gcc/arm-linux-gnueabihf/6.3.0/../../../../include/c++/6.3.0/bits/char_traits.h:290:33
	vld1.8	{d16, d17}, [r2]
.Ltmp363:
	@DEBUG_VALUE: copy:__s1 <- %R7
	vst1.8	{d16, d17}, [r7]
.Ltmp364:
	@DEBUG_VALUE: copy:__n <- 16
	b	.LBB3_29
.Ltmp365:
.LBB3_28:
	@DEBUG_VALUE: assign:__c1 <- %R1
	@DEBUG_VALUE: _M_data:__p <- %R1
	@DEBUG_VALUE: copy:__s2 <- %R1
	@DEBUG_VALUE: _M_local_data:this <- %R0
	@DEBUG_VALUE: _M_data:__p <- %R2
	@DEBUG_VALUE: _M_data:this <- %R0
	@DEBUG_VALUE: _M_data:this <- %R0
	.loc	36 128 26               @ /usr/bin/../lib/gcc/arm-linux-gnueabihf/6.3.0/../../../../include/c++/6.3.0/bits/basic_string.h:128:26
	str	r2, [sp, #32]
.Ltmp366:
	.loc	36 487 24               @ /usr/bin/../lib/gcc/arm-linux-gnueabihf/6.3.0/../../../../include/c++/6.3.0/bits/basic_string.h:487:24
	ldr	r2, [r0, #8]
.Ltmp367:
	@DEBUG_VALUE: _M_capacity:__capacity <- %R2
	.loc	36 160 31               @ /usr/bin/../lib/gcc/arm-linux-gnueabihf/6.3.0/../../../../include/c++/6.3.0/bits/basic_string.h:160:31
	str	r2, [sp, #40]
.Ltmp368:
.LBB3_29:
	@DEBUG_VALUE: assign:__c1 <- %R1
	@DEBUG_VALUE: _M_data:__p <- %R1
	@DEBUG_VALUE: copy:__s2 <- %R1
	@DEBUG_VALUE: _M_local_data:this <- %R0
	@DEBUG_VALUE: _M_data:this <- %R0
	@DEBUG_VALUE: length:this <- %R0
	.loc	36 811 16               @ /usr/bin/../lib/gcc/arm-linux-gnueabihf/6.3.0/../../../../include/c++/6.3.0/bits/basic_string.h:811:16
	ldr	r2, [r0, #4]
.Ltmp369:
	@DEBUG_VALUE: _M_data:this <- %R0
	@DEBUG_VALUE: _M_length:__length <- %R2
	mov	r4, #1
.Ltmp370:
	.loc	36 132 26               @ /usr/bin/../lib/gcc/arm-linux-gnueabihf/6.3.0/../../../../include/c++/6.3.0/bits/basic_string.h:132:26
	str	r2, [sp, #36]
	mov	r2, #0
.Ltmp371:
	@DEBUG_VALUE: _M_data:this <- %R0
	@DEBUG_VALUE: _M_length:__length <- 0
	@DEBUG_VALUE: _M_set_length:__n <- 0
	.loc	36 128 26               @ /usr/bin/../lib/gcc/arm-linux-gnueabihf/6.3.0/../../../../include/c++/6.3.0/bits/basic_string.h:128:26
	stm	r0, {r1, r2}
.Ltmp372:
	.loc	38 243 14               @ /usr/bin/../lib/gcc/arm-linux-gnueabihf/6.3.0/../../../../include/c++/6.3.0/bits/char_traits.h:243:14
	strb	r2, [r0, #8]
.Ltmp373:
	.loc	7 85 9 discriminator 2  @ /root/Bela/projects/filter_matching2/render.cpp:85:9
.Ltmp266:
	add	r1, sp, #32
.Ltmp374:
	@DEBUG_VALUE: _M_length:this <- %R1
	mov	r0, r6
.Ltmp375:
	bl	_ZNSt13runtime_errorC1ERKNSt7__cxx1112basic_stringIcSt11char_traitsIcESaIcEEE
.Ltmp376:
.Ltmp267:
@ BB#30:
	.loc	7 85 3 is_stmt 0 discriminator 3 @ /root/Bela/projects/filter_matching2/render.cpp:85:3
.Ltmp268:
	movw	r1, :lower16:_ZTISt13runtime_error
	movw	r2, :lower16:_ZNSt13runtime_errorD1Ev
	movt	r1, :upper16:_ZTISt13runtime_error
	movt	r2, :upper16:_ZNSt13runtime_errorD1Ev
	mov	r0, r6
	mov	r4, #0
	mov	lr, pc
	b	__cxa_throw
.Ltmp269:
@ BB#31:
.LBB3_32:
.Ltmp270:
	mov	r5, r0
.Ltmp377:
	.loc	36 136 28 is_stmt 1     @ /usr/bin/../lib/gcc/arm-linux-gnueabihf/6.3.0/../../../../include/c++/6.3.0/bits/basic_string.h:136:28
	ldr	r0, [sp, #32]
.Ltmp378:
	@DEBUG_VALUE: deallocate:__p <- %R0
	@DEBUG_VALUE: deallocate:__p <- %R0
	.loc	36 180 6                @ /usr/bin/../lib/gcc/arm-linux-gnueabihf/6.3.0/../../../../include/c++/6.3.0/bits/basic_string.h:180:6
	cmp	r0, r7
	beq	.LBB3_35
.Ltmp379:
@ BB#33:
	@DEBUG_VALUE: deallocate:__p <- %R0
	@DEBUG_VALUE: deallocate:__p <- %R0
	.loc	9 110 9                 @ /usr/bin/../lib/gcc/arm-linux-gnueabihf/6.3.0/../../../../include/c++/6.3.0/ext/new_allocator.h:110:9
	bl	_ZdlPv
.Ltmp380:
	b	.LBB3_35
.Ltmp381:
.LBB3_34:
.Ltmp273:
	mov	r5, r0
	mov	r4, #1
.LBB3_35:                               @ %_ZNSt7__cxx1112basic_stringIcSt11char_traitsIcESaIcEED2Ev.exit
.Ltmp382:
	.loc	36 136 28               @ /usr/bin/../lib/gcc/arm-linux-gnueabihf/6.3.0/../../../../include/c++/6.3.0/bits/basic_string.h:136:28
	ldr	r0, [sp, #8]
.Ltmp383:
	@DEBUG_VALUE: _M_local_data:this <- %R8
	@DEBUG_VALUE: _M_data:this <- %R8
	@DEBUG_VALUE: deallocate:__p <- %R0
	@DEBUG_VALUE: deallocate:__p <- %R0
	.loc	36 152 57               @ /usr/bin/../lib/gcc/arm-linux-gnueabihf/6.3.0/../../../../include/c++/6.3.0/bits/basic_string.h:152:57
	add	r1, r8, #8
.Ltmp384:
	.loc	36 180 6                @ /usr/bin/../lib/gcc/arm-linux-gnueabihf/6.3.0/../../../../include/c++/6.3.0/bits/basic_string.h:180:6
	cmp	r0, r1
	bne	.LBB3_37
.Ltmp385:
@ BB#36:                                @ %_ZNSt7__cxx1112basic_stringIcSt11char_traitsIcESaIcEED2Ev.exit20
	@DEBUG_VALUE: deallocate:__p <- %R0
	@DEBUG_VALUE: deallocate:__p <- %R0
	@DEBUG_VALUE: _M_data:this <- %R8
	@DEBUG_VALUE: _M_local_data:this <- %R8
	.loc	7 85 3 discriminator 6  @ /root/Bela/projects/filter_matching2/render.cpp:85:3
	cmp	r4, #1
	beq	.LBB3_39
	b	.LBB3_41
.Ltmp386:
.LBB3_37:
	@DEBUG_VALUE: deallocate:__p <- %R0
	@DEBUG_VALUE: deallocate:__p <- %R0
	@DEBUG_VALUE: _M_data:this <- %R8
	@DEBUG_VALUE: _M_local_data:this <- %R8
	.loc	9 110 9                 @ /usr/bin/../lib/gcc/arm-linux-gnueabihf/6.3.0/../../../../include/c++/6.3.0/ext/new_allocator.h:110:9
	bl	_ZdlPv
.Ltmp387:
	.loc	7 85 3 discriminator 6  @ /root/Bela/projects/filter_matching2/render.cpp:85:3
	cmp	r4, #0
	bne	.LBB3_39
	b	.LBB3_41
.Ltmp388:
.LBB3_38:                               @ %_ZNSt7__cxx1112basic_stringIcSt11char_traitsIcESaIcEED2Ev.exit20.thread
.Ltmp263:
	mov	r5, r0
.LBB3_39:
	.loc	7 85 3 is_stmt 0 discriminator 7 @ /root/Bela/projects/filter_matching2/render.cpp:85:3
	mov	r0, r6
	bl	__cxa_free_exception
	b	.LBB3_41
.Ltmp389:
.LBB3_40:
	@DEBUG_VALUE: _S_compare:__n1 <- %R9
	@DEBUG_VALUE: compare:__size <- %R9
.Ltmp260:
	mov	r5, r0
.Ltmp390:
.LBB3_41:
	.loc	36 136 28 is_stmt 1     @ /usr/bin/../lib/gcc/arm-linux-gnueabihf/6.3.0/../../../../include/c++/6.3.0/bits/basic_string.h:136:28
	ldr	r0, [sp, #56]
.Ltmp391:
	@DEBUG_VALUE: _M_local_data:this <- undef
	@DEBUG_VALUE: _M_data:this <- undef
	add	r1, sp, #56
.Ltmp392:
	.loc	36 152 56               @ /usr/bin/../lib/gcc/arm-linux-gnueabihf/6.3.0/../../../../include/c++/6.3.0/bits/basic_string.h:152:56
	add	r1, r1, #8
.Ltmp393:
	.loc	36 180 6                @ /usr/bin/../lib/gcc/arm-linux-gnueabihf/6.3.0/../../../../include/c++/6.3.0/bits/basic_string.h:180:6
	cmp	r0, r1
	beq	.LBB3_43
@ BB#42:
.Ltmp394:
	.loc	9 110 9                 @ /usr/bin/../lib/gcc/arm-linux-gnueabihf/6.3.0/../../../../include/c++/6.3.0/ext/new_allocator.h:110:9
	bl	_ZdlPv
.Ltmp395:
.LBB3_43:                               @ %_ZNSt7__cxx1112basic_stringIwSt11char_traitsIwESaIwEED2Ev.exit21
	mov	r0, r5
	mov	lr, pc
	b	_Unwind_Resume
.Lfunc_end3:
	.size	_ZL16retrieveAsNumberRSt3mapINSt7__cxx1112basic_stringIwSt11char_traitsIwESaIwEEEP9JSONValueSt4lessIS5_ESaISt4pairIKS5_S7_EEERKNS1_IcS2_IcESaIcEEE, .Lfunc_end3-_ZL16retrieveAsNumberRSt3mapINSt7__cxx1112basic_stringIwSt11char_traitsIwESaIwEEEP9JSONValueSt4lessIS5_ESaISt4pairIKS5_S7_EEERKNS1_IcS2_IcESaIcEEE
	.cfi_endproc
	.globl	__gxx_personality_v0
	.personality __gxx_personality_v0
	.handlerdata
	.p2align	2
GCC_except_table3:
.Lexception2:
	.byte	255                     @ @LPStart Encoding = omit
	.byte	0                       @ @TType Encoding = absptr
	.byte	93                      @ @TType base offset
	.byte	3                       @ Call site Encoding = udata4
	.byte	91                      @ Call site table length
	.long	.Lfunc_begin3-.Lfunc_begin3 @ >> Call Site 1 <<
	.long	.Ltmp252-.Lfunc_begin3  @   Call between .Lfunc_begin3 and .Ltmp252
	.long	0                       @     has no landing pad
	.byte	0                       @   On action: cleanup
	.long	.Ltmp252-.Lfunc_begin3  @ >> Call Site 2 <<
	.long	.Ltmp259-.Ltmp252       @   Call between .Ltmp252 and .Ltmp259
	.long	.Ltmp260-.Lfunc_begin3  @     jumps to .Ltmp260
	.byte	0                       @   On action: cleanup
	.long	.Ltmp259-.Lfunc_begin3  @ >> Call Site 3 <<
	.long	.Ltmp261-.Ltmp259       @   Call between .Ltmp259 and .Ltmp261
	.long	0                       @     has no landing pad
	.byte	0                       @   On action: cleanup
	.long	.Ltmp261-.Lfunc_begin3  @ >> Call Site 4 <<
	.long	.Ltmp262-.Ltmp261       @   Call between .Ltmp261 and .Ltmp262
	.long	.Ltmp263-.Lfunc_begin3  @     jumps to .Ltmp263
	.byte	0                       @   On action: cleanup
	.long	.Ltmp271-.Lfunc_begin3  @ >> Call Site 5 <<
	.long	.Ltmp265-.Ltmp271       @   Call between .Ltmp271 and .Ltmp265
	.long	.Ltmp273-.Lfunc_begin3  @     jumps to .Ltmp273
	.byte	0                       @   On action: cleanup
	.long	.Ltmp266-.Lfunc_begin3  @ >> Call Site 6 <<
	.long	.Ltmp269-.Ltmp266       @   Call between .Ltmp266 and .Ltmp269
	.long	.Ltmp270-.Lfunc_begin3  @     jumps to .Ltmp270
	.byte	0                       @   On action: cleanup
	.long	.Ltmp269-.Lfunc_begin3  @ >> Call Site 7 <<
	.long	.Lfunc_end3-.Ltmp269    @   Call between .Ltmp269 and .Lfunc_end3
	.long	0                       @     has no landing pad
	.byte	0                       @   On action: cleanup
	.p2align	2
	.fnend

	.section	.text._ZN3FftD2Ev,"axG",%progbits,_ZN3FftD2Ev,comdat
	.weak	_ZN3FftD2Ev
	.p2align	2
	.type	_ZN3FftD2Ev,%function
_ZN3FftD2Ev:                            @ @_ZN3FftD2Ev
.Lfunc_begin4:
	.loc	34 16 0                 @ ./libraries/Fft/Fft.h:16:0
	.fnstart
	.cfi_startproc
@ BB#0:
	.save	{r4, r10, r11, lr}
	push	{r4, r10, r11, lr}
.Ltmp399:
	.cfi_def_cfa_offset 16
.Ltmp400:
	.cfi_offset lr, -4
.Ltmp401:
	.cfi_offset r11, -8
.Ltmp402:
	.cfi_offset r10, -12
.Ltmp403:
	.cfi_offset r4, -16
	.setfp	r11, sp, #8
	add	r11, sp, #8
.Ltmp404:
	.cfi_def_cfa r11, 8
	@DEBUG_VALUE: ~Fft:this <- %R0
	mov	r4, r0
.Ltmp405:
	@DEBUG_VALUE: ~Fft:this <- %R4
	.loc	34 16 10 prologue_end   @ ./libraries/Fft/Fft.h:16:10
.Ltmp396:
	bl	_ZN3Fft7cleanupEv
.Ltmp397:
.Ltmp406:
@ BB#1:
	@DEBUG_VALUE: ~Fft:this <- %R4
	.loc	34 16 21 is_stmt 0 discriminator 1 @ ./libraries/Fft/Fft.h:16:21
	mov	r0, r4
	pop	{r4, r10, r11, pc}
.Ltmp407:
.LBB4_2:
	@DEBUG_VALUE: ~Fft:this <- %R4
.Ltmp398:
.Ltmp408:
	.loc	34 16 10 discriminator 2 @ ./libraries/Fft/Fft.h:16:10
	mov	lr, pc
	b	__clang_call_terminate
.Ltmp409:
.Lfunc_end4:
	.size	_ZN3FftD2Ev, .Lfunc_end4-_ZN3FftD2Ev
	.cfi_endproc
	.globl	__gxx_personality_v0
	.personality __gxx_personality_v0
	.handlerdata
	.p2align	2
GCC_except_table4:
.Lexception3:
	.byte	255                     @ @LPStart Encoding = omit
	.byte	0                       @ @TType Encoding = absptr
	.byte	21                      @ @TType base offset
	.byte	3                       @ Call site Encoding = udata4
	.byte	13                      @ Call site table length
	.long	.Ltmp396-.Lfunc_begin4  @ >> Call Site 1 <<
	.long	.Ltmp397-.Ltmp396       @   Call between .Ltmp396 and .Ltmp397
	.long	.Ltmp398-.Lfunc_begin4  @     jumps to .Ltmp398
	.byte	1                       @   On action: 1
	.byte	1                       @ >> Action Record 1 <<
                                        @   Catch TypeInfo 1
	.byte	0                       @   No further actions
                                        @ >> Catch TypeInfos <<
	.long	0                       @ TypeInfo 1
	.p2align	2
	.fnend

	.section	.text._ZNSt6vectorIfSaIfEED2Ev,"axG",%progbits,_ZNSt6vectorIfSaIfEED2Ev,comdat
	.weak	_ZNSt6vectorIfSaIfEED2Ev
	.p2align	2
	.type	_ZNSt6vectorIfSaIfEED2Ev,%function
_ZNSt6vectorIfSaIfEED2Ev:               @ @_ZNSt6vectorIfSaIfEED2Ev
.Lfunc_begin5:
	.loc	13 426 0 is_stmt 1      @ /usr/bin/../lib/gcc/arm-linux-gnueabihf/6.3.0/../../../../include/c++/6.3.0/bits/stl_vector.h:426:0
	.fnstart
	.cfi_startproc
@ BB#0:
	.save	{r4, r10, r11, lr}
	push	{r4, r10, r11, lr}
.Ltmp410:
	.cfi_def_cfa_offset 16
.Ltmp411:
	.cfi_offset lr, -4
.Ltmp412:
	.cfi_offset r11, -8
.Ltmp413:
	.cfi_offset r10, -12
.Ltmp414:
	.cfi_offset r4, -16
	.setfp	r11, sp, #8
	add	r11, sp, #8
.Ltmp415:
	.cfi_def_cfa r11, 8
	@DEBUG_VALUE: ~vector:this <- %R0
	mov	r4, r0
.Ltmp416:
	@DEBUG_VALUE: ~vector:this <- %R4
	.loc	13 160 37 prologue_end  @ /usr/bin/../lib/gcc/arm-linux-gnueabihf/6.3.0/../../../../include/c++/6.3.0/bits/stl_vector.h:160:37
	ldr	r0, [r4]
.Ltmp417:
	@DEBUG_VALUE: _M_deallocate:__p <- %R0
	@DEBUG_VALUE: deallocate:__p <- %R0
	@DEBUG_VALUE: deallocate:__p <- %R0
	.loc	13 177 6                @ /usr/bin/../lib/gcc/arm-linux-gnueabihf/6.3.0/../../../../include/c++/6.3.0/bits/stl_vector.h:177:6
	cmp	r0, #0
	beq	.LBB5_2
.Ltmp418:
@ BB#1:
	@DEBUG_VALUE: deallocate:__p <- %R0
	@DEBUG_VALUE: deallocate:__p <- %R0
	@DEBUG_VALUE: _M_deallocate:__p <- %R0
	@DEBUG_VALUE: ~vector:this <- %R4
	.loc	9 110 9                 @ /usr/bin/../lib/gcc/arm-linux-gnueabihf/6.3.0/../../../../include/c++/6.3.0/ext/new_allocator.h:110:9
	bl	_ZdlPv
.Ltmp419:
.LBB5_2:                                @ %_ZNSt12_Vector_baseIfSaIfEED2Ev.exit
	@DEBUG_VALUE: ~vector:this <- %R4
	.loc	13 427 33 discriminator 1 @ /usr/bin/../lib/gcc/arm-linux-gnueabihf/6.3.0/../../../../include/c++/6.3.0/bits/stl_vector.h:427:33
	mov	r0, r4
	pop	{r4, r10, r11, pc}
.Ltmp420:
.Lfunc_end5:
	.size	_ZNSt6vectorIfSaIfEED2Ev, .Lfunc_end5-_ZNSt6vectorIfSaIfEED2Ev
	.cfi_endproc
	.fnend

	.text
	.globl	setup
	.p2align	3
	.type	setup,%function
setup:                                  @ @setup
.Lfunc_begin6:
	.loc	7 136 0                 @ /root/Bela/projects/filter_matching2/render.cpp:136:0
	.fnstart
	.cfi_startproc
@ BB#0:                                 @ %._crit_edge.i.i.i.i
	.save	{r4, r5, r6, r7, r8, r10, r11, lr}
	push	{r4, r5, r6, r7, r8, r10, r11, lr}
.Ltmp436:
	.cfi_def_cfa_offset 32
.Ltmp437:
	.cfi_offset lr, -4
.Ltmp438:
	.cfi_offset r11, -8
.Ltmp439:
	.cfi_offset r10, -12
.Ltmp440:
	.cfi_offset r8, -16
.Ltmp441:
	.cfi_offset r7, -20
.Ltmp442:
	.cfi_offset r6, -24
.Ltmp443:
	.cfi_offset r5, -28
.Ltmp444:
	.cfi_offset r4, -32
	.setfp	r11, sp, #24
	add	r11, sp, #24
.Ltmp445:
	.cfi_def_cfa r11, 8
	.pad	#168
	sub	sp, sp, #168
	@DEBUG_VALUE: setup:context <- %R0
	@DEBUG_VALUE: setup:userData <- %R1
.Ltmp446:
	.loc	7 137 16 prologue_end   @ /root/Bela/projects/filter_matching2/render.cpp:137:16
	movw	r6, :lower16:.L_MergedGlobals
	.loc	7 137 7 is_stmt 0       @ /root/Bela/projects/filter_matching2/render.cpp:137:7
	movw	r5, :lower16:midi
	.loc	7 137 16                @ /root/Bela/projects/filter_matching2/render.cpp:137:16
	movt	r6, :upper16:.L_MergedGlobals
	.loc	7 137 7                 @ /root/Bela/projects/filter_matching2/render.cpp:137:7
	movt	r5, :upper16:midi
	.loc	7 137 16                @ /root/Bela/projects/filter_matching2/render.cpp:137:16
	ldr	r1, [r6, #16]
.Ltmp447:
	mov	r8, r0
.Ltmp448:
	@DEBUG_VALUE: setup:context <- %R8
	.loc	7 137 7                 @ /root/Bela/projects/filter_matching2/render.cpp:137:7
	mov	r0, r5
	bl	_ZN4Midi8readFromEPKc
	.loc	7 138 15 is_stmt 1      @ /root/Bela/projects/filter_matching2/render.cpp:138:15
	ldr	r1, [r6, #16]
	.loc	7 138 7 is_stmt 0       @ /root/Bela/projects/filter_matching2/render.cpp:138:7
	mov	r0, r5
	bl	_ZN4Midi7writeToEPKc
	.loc	7 139 7 is_stmt 1       @ /root/Bela/projects/filter_matching2/render.cpp:139:7
	mov	r0, r5
	mov	r1, #1
	bl	_ZN4Midi12enableParserEb
.Ltmp449:
	.loc	38 290 33               @ /usr/bin/../lib/gcc/arm-linux-gnueabihf/6.3.0/../../../../include/c++/6.3.0/bits/char_traits.h:290:33
	movw	r0, :lower16:.L.str.13
	add	r5, sp, #72
.Ltmp450:
	@DEBUG_VALUE: _M_data:this <- %R5
	@DEBUG_VALUE: _M_length:this <- %R5
	@DEBUG_VALUE: _M_set_length:__n <- 9
	@DEBUG_VALUE: _M_set_length:this <- %R5
	@DEBUG_VALUE: _M_data:this <- %R5
	@DEBUG_VALUE: _M_construct<const char *>:__dnew <- 9
	@DEBUG_VALUE: _M_construct<const char *>:this <- %R5
	@DEBUG_VALUE: _M_construct_aux<const char *>:this <- %R5
	@DEBUG_VALUE: _M_construct<const char *>:this <- %R5
	@DEBUG_VALUE: _S_copy_chars:__p <- %R7
	@DEBUG_VALUE: _S_copy:__d <- %R7
	@DEBUG_VALUE: _M_local_data:this <- %R5
	@DEBUG_VALUE: basic_string:this <- %R5
	movt	r0, :upper16:.L.str.13
.Ltmp451:
	.loc	36 142 51               @ /usr/bin/../lib/gcc/arm-linux-gnueabihf/6.3.0/../../../../include/c++/6.3.0/bits/basic_string.h:142:51
	add	r7, r5, #8
.Ltmp452:
	.loc	38 290 33               @ /usr/bin/../lib/gcc/arm-linux-gnueabihf/6.3.0/../../../../include/c++/6.3.0/bits/char_traits.h:290:33
	vldr	d16, [r0]
	mov	r0, #112
.Ltmp453:
	.loc	36 110 25               @ /usr/bin/../lib/gcc/arm-linux-gnueabihf/6.3.0/../../../../include/c++/6.3.0/bits/basic_string.h:110:25
	str	r7, [sp, #72]
.Ltmp454:
	@DEBUG_VALUE: _S_copy:__n <- 9
	.loc	38 290 33               @ /usr/bin/../lib/gcc/arm-linux-gnueabihf/6.3.0/../../../../include/c++/6.3.0/bits/char_traits.h:290:33
	strb	r0, [sp, #88]
	mov	r0, #9
.Ltmp455:
	@DEBUG_VALUE: _M_length:__length <- 9
	vstr	d16, [sp, #80]
.Ltmp456:
	.loc	36 132 26               @ /usr/bin/../lib/gcc/arm-linux-gnueabihf/6.3.0/../../../../include/c++/6.3.0/bits/basic_string.h:132:26
	str	r0, [sp, #76]
	mov	r0, #0
.Ltmp457:
	.loc	38 243 14               @ /usr/bin/../lib/gcc/arm-linux-gnueabihf/6.3.0/../../../../include/c++/6.3.0/bits/char_traits.h:243:14
	strb	r0, [sp, #89]
.Ltmp458:
	.loc	7 140 8 discriminator 1 @ /root/Bela/projects/filter_matching2/render.cpp:140:8
.Ltmp421:
	str	r0, [sp]
	movw	r0, :lower16:gPipe
	movt	r0, :upper16:gPipe
	mov	r1, r5
	mov	r2, #8388608
	mov	r3, #0
	bl	_ZN4Pipe5setupERKNSt7__cxx1112basic_stringIcSt11char_traitsIcESaIcEEEjbb
.Ltmp422:
.Ltmp459:
	@DEBUG_VALUE: _S_copy:__s <- %R0
@ BB#1:
	@DEBUG_VALUE: _S_copy:__s <- %R0
	@DEBUG_VALUE: basic_string:this <- %R5
	@DEBUG_VALUE: _M_local_data:this <- %R5
	@DEBUG_VALUE: _M_construct<const char *>:this <- %R5
	@DEBUG_VALUE: _M_construct_aux<const char *>:this <- %R5
	@DEBUG_VALUE: _M_construct<const char *>:this <- %R5
	@DEBUG_VALUE: _M_data:this <- %R5
	@DEBUG_VALUE: _M_set_length:this <- %R5
	@DEBUG_VALUE: _M_length:this <- %R5
	@DEBUG_VALUE: _M_data:this <- %R5
	@DEBUG_VALUE: setup:context <- %R8
	.loc	36 136 28               @ /usr/bin/../lib/gcc/arm-linux-gnueabihf/6.3.0/../../../../include/c++/6.3.0/bits/basic_string.h:136:28
	ldr	r0, [sp, #72]
.Ltmp460:
	@DEBUG_VALUE: deallocate:__p <- %R0
	@DEBUG_VALUE: deallocate:__p <- %R0
	.loc	36 180 6                @ /usr/bin/../lib/gcc/arm-linux-gnueabihf/6.3.0/../../../../include/c++/6.3.0/bits/basic_string.h:180:6
	cmp	r0, r7
	beq	.LBB6_3
.Ltmp461:
@ BB#2:
	@DEBUG_VALUE: deallocate:__p <- %R0
	@DEBUG_VALUE: deallocate:__p <- %R0
	@DEBUG_VALUE: basic_string:this <- %R5
	@DEBUG_VALUE: _M_local_data:this <- %R5
	@DEBUG_VALUE: _M_construct<const char *>:this <- %R5
	@DEBUG_VALUE: _M_construct_aux<const char *>:this <- %R5
	@DEBUG_VALUE: _M_construct<const char *>:this <- %R5
	@DEBUG_VALUE: _M_data:this <- %R5
	@DEBUG_VALUE: _M_set_length:this <- %R5
	@DEBUG_VALUE: _M_length:this <- %R5
	@DEBUG_VALUE: _M_data:this <- %R5
	@DEBUG_VALUE: setup:context <- %R8
	.loc	9 110 9                 @ /usr/bin/../lib/gcc/arm-linux-gnueabihf/6.3.0/../../../../include/c++/6.3.0/ext/new_allocator.h:110:9
	bl	_ZdlPv
.Ltmp462:
.LBB6_3:                                @ %_ZNSt7__cxx1112basic_stringIcSt11char_traitsIcESaIcEED2Ev.exit
	@DEBUG_VALUE: basic_string:this <- %R5
	@DEBUG_VALUE: _M_local_data:this <- %R5
	@DEBUG_VALUE: _M_construct<const char *>:this <- %R5
	@DEBUG_VALUE: _M_construct_aux<const char *>:this <- %R5
	@DEBUG_VALUE: _M_construct<const char *>:this <- %R5
	@DEBUG_VALUE: _M_data:this <- %R5
	@DEBUG_VALUE: _M_set_length:this <- %R5
	@DEBUG_VALUE: _M_length:this <- %R5
	@DEBUG_VALUE: _M_data:this <- %R5
	@DEBUG_VALUE: setup:context <- %R8
	.loc	7 144 19                @ /root/Bela/projects/filter_matching2/render.cpp:144:19
	vldr	s0, [r8, #32]
.Ltmp463:
	.loc	29 125 11               @ ./libraries/Biquad/Biquad.h:125:11
	vmov.i32	q9, #0x0
.Ltmp464:
	@DEBUG_VALUE: resize:__x <- %R5
	@DEBUG_VALUE: setup:this <- %R5
	@DEBUG_VALUE: Biquad:this <- %R5
	.loc	29 57 24                @ ./libraries/Biquad/Biquad.h:57:24
	vldr	d17, .LCPI6_0
.Ltmp465:
	.loc	29 124 11               @ ./libraries/Biquad/Biquad.h:124:11
	add	r1, r5, #80
.Ltmp466:
	.loc	7 144 10                @ /root/Bela/projects/filter_matching2/render.cpp:144:10
	vcvt.f64.f32	d16, s0
	.loc	7 145 12                @ /root/Bela/projects/filter_matching2/render.cpp:145:12
	ldr	r0, [r6]
.Ltmp467:
	.loc	61 200 11               @ /usr/bin/../lib/gcc/arm-linux-gnueabihf/6.3.0/../../../../include/c++/6.3.0/bits/stl_algobase.h:200:11
	ldr	r4, [r8, #28]
	.loc	61 200 17 is_stmt 0     @ /usr/bin/../lib/gcc/arm-linux-gnueabihf/6.3.0/../../../../include/c++/6.3.0/bits/stl_algobase.h:200:17
	ldr	r7, [r8, #24]
.Ltmp468:
	.loc	29 57 24 is_stmt 1      @ ./libraries/Biquad/Biquad.h:57:24
	vdiv.f64	d17, d17, d16
.Ltmp469:
	.loc	29 125 11               @ ./libraries/Biquad/Biquad.h:125:11
	vst1.64	{d18, d19}, [r1]
.Ltmp470:
	.loc	29 55 8                 @ ./libraries/Biquad/Biquad.h:55:8
	str	r0, [sp, #144]
	.loc	29 58 5                 @ ./libraries/Biquad/Biquad.h:58:5
	movw	r0, #17039
	movt	r0, #16425
	.loc	29 56 6                 @ ./libraries/Biquad/Biquad.h:56:6
	vstr	d16, [sp, #136]
	.loc	29 57 6                 @ ./libraries/Biquad/Biquad.h:57:6
	vstr	d17, [sp, #112]
	.loc	29 58 5                 @ ./libraries/Biquad/Biquad.h:58:5
	str	r0, [sp, #124]
	movw	r0, #62915
	movt	r0, #23592
	str	r0, [sp, #120]
	.loc	29 59 12                @ ./libraries/Biquad/Biquad.h:59:12
	movw	r0, #6553
	movt	r0, #16434
	str	r0, [sp, #132]
	movw	r0, #39322
	movt	r0, #39321
	str	r0, [sp, #128]
	.loc	29 60 3                 @ ./libraries/Biquad/Biquad.h:60:3
	mov	r0, r5
	bl	_ZN12BiquadCoeffTIdE4calcEv
.Ltmp471:
	.loc	13 656 66               @ /usr/bin/../lib/gcc/arm-linux-gnueabihf/6.3.0/../../../../include/c++/6.3.0/bits/stl_vector.h:656:66
	ldr	r0, [r6, #44]
	.loc	13 656 50 is_stmt 0     @ /usr/bin/../lib/gcc/arm-linux-gnueabihf/6.3.0/../../../../include/c++/6.3.0/bits/stl_vector.h:656:50
	movw	r3, #43691
	.loc	13 656 40               @ /usr/bin/../lib/gcc/arm-linux-gnueabihf/6.3.0/../../../../include/c++/6.3.0/bits/stl_vector.h:656:40
	ldr	r1, [r6, #48]
	.loc	13 656 50               @ /usr/bin/../lib/gcc/arm-linux-gnueabihf/6.3.0/../../../../include/c++/6.3.0/bits/stl_vector.h:656:50
	movt	r3, #43690
.Ltmp472:
	.loc	7 142 3 is_stmt 1       @ /root/Bela/projects/filter_matching2/render.cpp:142:3
	cmp	r4, r7
.Ltmp473:
	.loc	13 656 50               @ /usr/bin/../lib/gcc/arm-linux-gnueabihf/6.3.0/../../../../include/c++/6.3.0/bits/stl_vector.h:656:50
	sub	r2, r1, r0
.Ltmp474:
	.loc	7 142 3                 @ /root/Bela/projects/filter_matching2/render.cpp:142:3
	movlo	r7, r4
.Ltmp475:
	@DEBUG_VALUE: resize:__new_size <- %R7
	.loc	13 656 50               @ /usr/bin/../lib/gcc/arm-linux-gnueabihf/6.3.0/../../../../include/c++/6.3.0/bits/stl_vector.h:656:50
	asr	r2, r2, #5
	mul	r2, r2, r3
.Ltmp476:
	.loc	13 696 6                @ /usr/bin/../lib/gcc/arm-linux-gnueabihf/6.3.0/../../../../include/c++/6.3.0/bits/stl_vector.h:696:6
	cmp	r7, r2
	bls	.LBB6_5
.Ltmp477:
@ BB#4:
	@DEBUG_VALUE: resize:__new_size <- %R7
	@DEBUG_VALUE: Biquad:this <- %R5
	@DEBUG_VALUE: setup:this <- %R5
	@DEBUG_VALUE: resize:__x <- %R5
	@DEBUG_VALUE: basic_string:this <- %R5
	@DEBUG_VALUE: _M_local_data:this <- %R5
	@DEBUG_VALUE: _M_construct<const char *>:this <- %R5
	@DEBUG_VALUE: _M_construct_aux<const char *>:this <- %R5
	@DEBUG_VALUE: _M_construct<const char *>:this <- %R5
	@DEBUG_VALUE: _M_data:this <- %R5
	@DEBUG_VALUE: _M_set_length:this <- %R5
	@DEBUG_VALUE: _M_length:this <- %R5
	@DEBUG_VALUE: _M_data:this <- %R5
	@DEBUG_VALUE: setup:context <- %R8
	.loc	13 697 29               @ /usr/bin/../lib/gcc/arm-linux-gnueabihf/6.3.0/../../../../include/c++/6.3.0/bits/stl_vector.h:697:29
	sub	r2, r7, r2
.Ltmp478:
	@DEBUG_VALUE: insert:__n <- %R2
	.loc	13 1055 2 discriminator 2 @ /usr/bin/../lib/gcc/arm-linux-gnueabihf/6.3.0/../../../../include/c++/6.3.0/bits/stl_vector.h:1055:2
	add	r0, r6, #44
.Ltmp479:
	@DEBUG_VALUE: insert:this <- %R0
	add	r3, sp, #72
.Ltmp480:
	@DEBUG_VALUE: insert:__x <- %R3
	bl	_ZNSt6vectorI6BiquadSaIS0_EE14_M_fill_insertEN9__gnu_cxx17__normal_iteratorIPS0_S2_EEjRKS0_
.Ltmp481:
	b	.LBB6_6
.Ltmp482:
.LBB6_5:
	@DEBUG_VALUE: resize:__new_size <- %R7
	@DEBUG_VALUE: Biquad:this <- %R5
	@DEBUG_VALUE: setup:this <- %R5
	@DEBUG_VALUE: resize:__x <- %R5
	@DEBUG_VALUE: basic_string:this <- %R5
	@DEBUG_VALUE: _M_local_data:this <- %R5
	@DEBUG_VALUE: _M_construct<const char *>:this <- %R5
	@DEBUG_VALUE: _M_construct_aux<const char *>:this <- %R5
	@DEBUG_VALUE: _M_construct<const char *>:this <- %R5
	@DEBUG_VALUE: _M_data:this <- %R5
	@DEBUG_VALUE: _M_set_length:this <- %R5
	@DEBUG_VALUE: _M_length:this <- %R5
	@DEBUG_VALUE: _M_data:this <- %R5
	@DEBUG_VALUE: setup:context <- %R8
	.loc	13 699 43               @ /usr/bin/../lib/gcc/arm-linux-gnueabihf/6.3.0/../../../../include/c++/6.3.0/bits/stl_vector.h:699:43
	addlo	r1, r7, r7, lsl #1
	addlo	r0, r0, r1, lsl #5
.Ltmp483:
	@DEBUG_VALUE: _M_erase_at_end:__pos <- %R0
	.loc	13 1437 26              @ /usr/bin/../lib/gcc/arm-linux-gnueabihf/6.3.0/../../../../include/c++/6.3.0/bits/stl_vector.h:1437:26
	strlo	r0, [r6, #48]
.Ltmp484:
.LBB6_6:                                @ %_ZNSt6vectorI6BiquadSaIS0_EE6resizeEjRKS0_.exit
	@DEBUG_VALUE: resize:__new_size <- %R7
	@DEBUG_VALUE: Biquad:this <- %R5
	@DEBUG_VALUE: setup:this <- %R5
	@DEBUG_VALUE: resize:__x <- %R5
	@DEBUG_VALUE: basic_string:this <- %R5
	@DEBUG_VALUE: _M_local_data:this <- %R5
	@DEBUG_VALUE: _M_construct<const char *>:this <- %R5
	@DEBUG_VALUE: _M_construct_aux<const char *>:this <- %R5
	@DEBUG_VALUE: _M_construct<const char *>:this <- %R5
	@DEBUG_VALUE: _M_data:this <- %R5
	@DEBUG_VALUE: _M_set_length:this <- %R5
	@DEBUG_VALUE: _M_length:this <- %R5
	@DEBUG_VALUE: _M_data:this <- %R5
	@DEBUG_VALUE: setup:context <- %R8
	.loc	7 151 12                @ /root/Bela/projects/filter_matching2/render.cpp:151:12
	add	r5, r8, #92
.Ltmp485:
	@DEBUG_VALUE: basic_string:__s <- %R5
	@DEBUG_VALUE: length:__s <- %R5
	@DEBUG_VALUE: _M_construct<const char *>:__beg <- %R5
	@DEBUG_VALUE: _M_construct_aux<const char *>:__beg <- %R5
	@DEBUG_VALUE: _M_construct<const char *>:__beg <- %R5
	@DEBUG_VALUE: _S_copy_chars:__k1 <- %R5
	@DEBUG_VALUE: _S_copy:__s <- %R5
	@DEBUG_VALUE: assign:__c2 <- %R5
	add	r0, sp, #48
.Ltmp486:
	@DEBUG_VALUE: _M_construct<const char *>:this <- %R0
	@DEBUG_VALUE: _M_construct_aux<const char *>:this <- %R0
	@DEBUG_VALUE: _M_construct<const char *>:this <- %R0
	@DEBUG_VALUE: _M_local_data:this <- %R0
	.loc	36 142 51               @ /usr/bin/../lib/gcc/arm-linux-gnueabihf/6.3.0/../../../../include/c++/6.3.0/bits/basic_string.h:142:51
	add	r7, r0, #8
.Ltmp487:
	.loc	36 110 25               @ /usr/bin/../lib/gcc/arm-linux-gnueabihf/6.3.0/../../../../include/c++/6.3.0/bits/basic_string.h:110:25
	str	r7, [sp, #48]
.Ltmp488:
	.loc	38 267 16               @ /usr/bin/../lib/gcc/arm-linux-gnueabihf/6.3.0/../../../../include/c++/6.3.0/bits/char_traits.h:267:16
	mov	r0, r5
.Ltmp489:
	bl	strlen
	mov	r6, r0
.Ltmp490:
	@DEBUG_VALUE: _M_construct<const char *>:__dnew <- %R6
	@DEBUG_VALUE: _S_copy:__n <- %R6
	.loc	63 217 6                @ /usr/bin/../lib/gcc/arm-linux-gnueabihf/6.3.0/../../../../include/c++/6.3.0/bits/basic_string.tcc:217:6
	cmp	r6, #15
	.loc	63 215 12               @ /usr/bin/../lib/gcc/arm-linux-gnueabihf/6.3.0/../../../../include/c++/6.3.0/bits/basic_string.tcc:215:12
	str	r6, [sp, #72]
	bls	.LBB6_9
.Ltmp491:
@ BB#7:                                 @ %.noexc8.i13
	@DEBUG_VALUE: _S_copy:__n <- %R6
	@DEBUG_VALUE: _M_construct<const char *>:__dnew <- %R6
	@DEBUG_VALUE: assign:__c2 <- %R5
	@DEBUG_VALUE: _S_copy:__s <- %R5
	@DEBUG_VALUE: _S_copy_chars:__k1 <- %R5
	@DEBUG_VALUE: _M_construct<const char *>:__beg <- %R5
	@DEBUG_VALUE: _M_construct_aux<const char *>:__beg <- %R5
	@DEBUG_VALUE: _M_construct<const char *>:__beg <- %R5
	@DEBUG_VALUE: length:__s <- %R5
	@DEBUG_VALUE: basic_string:__s <- %R5
	@DEBUG_VALUE: setup:context <- %R8
	.loc	63 219 14               @ /usr/bin/../lib/gcc/arm-linux-gnueabihf/6.3.0/../../../../include/c++/6.3.0/bits/basic_string.tcc:219:14
.Ltmp424:
	add	r0, sp, #48
	add	r1, sp, #72
.Ltmp492:
	@DEBUG_VALUE: _M_construct<const char *>:__dnew <- [%R1+0]
	mov	r2, #0
	bl	_ZNSt7__cxx1112basic_stringIcSt11char_traitsIcESaIcEE9_M_createERjj
.Ltmp493:
.Ltmp425:
.Ltmp494:
@ BB#8:                                 @ %.noexc15
	@DEBUG_VALUE: _S_copy:__n <- %R6
	@DEBUG_VALUE: assign:__c2 <- %R5
	@DEBUG_VALUE: _S_copy:__s <- %R5
	@DEBUG_VALUE: _S_copy_chars:__k1 <- %R5
	@DEBUG_VALUE: _M_construct<const char *>:__beg <- %R5
	@DEBUG_VALUE: _M_construct_aux<const char *>:__beg <- %R5
	@DEBUG_VALUE: _M_construct<const char *>:__beg <- %R5
	@DEBUG_VALUE: length:__s <- %R5
	@DEBUG_VALUE: basic_string:__s <- %R5
	@DEBUG_VALUE: setup:context <- %R8
	@DEBUG_VALUE: _M_data:__p <- %R0
	.loc	63 220 18               @ /usr/bin/../lib/gcc/arm-linux-gnueabihf/6.3.0/../../../../include/c++/6.3.0/bits/basic_string.tcc:220:18
	ldr	r1, [sp, #72]
.Ltmp495:
	@DEBUG_VALUE: _M_capacity:__capacity <- %R1
	@DEBUG_VALUE: _M_construct<const char *>:__dnew <- %R1
	.loc	36 128 26               @ /usr/bin/../lib/gcc/arm-linux-gnueabihf/6.3.0/../../../../include/c++/6.3.0/bits/basic_string.h:128:26
	str	r0, [sp, #48]
.Ltmp496:
	.loc	36 160 31               @ /usr/bin/../lib/gcc/arm-linux-gnueabihf/6.3.0/../../../../include/c++/6.3.0/bits/basic_string.h:160:31
	str	r1, [sp, #56]
	b	.LBB6_10
.Ltmp497:
.LBB6_9:                                @ %._crit_edge.i.i.i.i12
	@DEBUG_VALUE: _S_copy:__n <- %R6
	@DEBUG_VALUE: _M_construct<const char *>:__dnew <- %R6
	@DEBUG_VALUE: assign:__c2 <- %R5
	@DEBUG_VALUE: _S_copy:__s <- %R5
	@DEBUG_VALUE: _S_copy_chars:__k1 <- %R5
	@DEBUG_VALUE: _M_construct<const char *>:__beg <- %R5
	@DEBUG_VALUE: _M_construct_aux<const char *>:__beg <- %R5
	@DEBUG_VALUE: _M_construct<const char *>:__beg <- %R5
	@DEBUG_VALUE: length:__s <- %R5
	@DEBUG_VALUE: basic_string:__s <- %R5
	@DEBUG_VALUE: setup:context <- %R8
	.loc	36 136 28               @ /usr/bin/../lib/gcc/arm-linux-gnueabihf/6.3.0/../../../../include/c++/6.3.0/bits/basic_string.h:136:28
	mov	r0, r7
.Ltmp498:
.LBB6_10:
	@DEBUG_VALUE: _S_copy:__n <- %R6
	@DEBUG_VALUE: assign:__c2 <- %R5
	@DEBUG_VALUE: _S_copy:__s <- %R5
	@DEBUG_VALUE: _S_copy_chars:__k1 <- %R5
	@DEBUG_VALUE: _M_construct<const char *>:__beg <- %R5
	@DEBUG_VALUE: _M_construct_aux<const char *>:__beg <- %R5
	@DEBUG_VALUE: _M_construct<const char *>:__beg <- %R5
	@DEBUG_VALUE: length:__s <- %R5
	@DEBUG_VALUE: basic_string:__s <- %R5
	@DEBUG_VALUE: setup:context <- %R8
	.loc	36 297 6                @ /usr/bin/../lib/gcc/arm-linux-gnueabihf/6.3.0/../../../../include/c++/6.3.0/bits/basic_string.h:297:6
	cmp	r6, #0
	beq	.LBB6_14
.Ltmp499:
@ BB#11:
	@DEBUG_VALUE: _S_copy:__n <- %R6
	@DEBUG_VALUE: assign:__c2 <- %R5
	@DEBUG_VALUE: _S_copy:__s <- %R5
	@DEBUG_VALUE: _S_copy_chars:__k1 <- %R5
	@DEBUG_VALUE: _M_construct<const char *>:__beg <- %R5
	@DEBUG_VALUE: _M_construct_aux<const char *>:__beg <- %R5
	@DEBUG_VALUE: _M_construct<const char *>:__beg <- %R5
	@DEBUG_VALUE: length:__s <- %R5
	@DEBUG_VALUE: basic_string:__s <- %R5
	@DEBUG_VALUE: setup:context <- %R8
	cmp	r6, #1
	bne	.LBB6_13
.Ltmp500:
@ BB#12:
	@DEBUG_VALUE: _S_copy:__n <- %R6
	@DEBUG_VALUE: assign:__c2 <- %R5
	@DEBUG_VALUE: _S_copy:__s <- %R5
	@DEBUG_VALUE: _S_copy_chars:__k1 <- %R5
	@DEBUG_VALUE: _M_construct<const char *>:__beg <- %R5
	@DEBUG_VALUE: _M_construct_aux<const char *>:__beg <- %R5
	@DEBUG_VALUE: _M_construct<const char *>:__beg <- %R5
	@DEBUG_VALUE: length:__s <- %R5
	@DEBUG_VALUE: basic_string:__s <- %R5
	@DEBUG_VALUE: setup:context <- %R8
	.loc	38 243 16               @ /usr/bin/../lib/gcc/arm-linux-gnueabihf/6.3.0/../../../../include/c++/6.3.0/bits/char_traits.h:243:16
	ldrb	r1, [r5]
.Ltmp501:
	@DEBUG_VALUE: _S_copy_chars:__p <- %R0
	.loc	38 243 14 is_stmt 0     @ /usr/bin/../lib/gcc/arm-linux-gnueabihf/6.3.0/../../../../include/c++/6.3.0/bits/char_traits.h:243:14
	strb	r1, [r0]
	b	.LBB6_14
.Ltmp502:
.LBB6_13:
	@DEBUG_VALUE: _S_copy:__n <- %R6
	@DEBUG_VALUE: assign:__c2 <- %R5
	@DEBUG_VALUE: _S_copy:__s <- %R5
	@DEBUG_VALUE: _S_copy_chars:__k1 <- %R5
	@DEBUG_VALUE: _M_construct<const char *>:__beg <- %R5
	@DEBUG_VALUE: _M_construct_aux<const char *>:__beg <- %R5
	@DEBUG_VALUE: _M_construct<const char *>:__beg <- %R5
	@DEBUG_VALUE: length:__s <- %R5
	@DEBUG_VALUE: basic_string:__s <- %R5
	@DEBUG_VALUE: setup:context <- %R8
	.loc	38 290 33 is_stmt 1     @ /usr/bin/../lib/gcc/arm-linux-gnueabihf/6.3.0/../../../../include/c++/6.3.0/bits/char_traits.h:290:33
	mov	r1, r5
	mov	r2, r6
	bl	memcpy
.Ltmp503:
.LBB6_14:                               @ %._crit_edge.i.i.i.i18
	@DEBUG_VALUE: _S_copy:__n <- %R6
	@DEBUG_VALUE: assign:__c2 <- %R5
	@DEBUG_VALUE: _S_copy:__s <- %R5
	@DEBUG_VALUE: _S_copy_chars:__k1 <- %R5
	@DEBUG_VALUE: _M_construct<const char *>:__beg <- %R5
	@DEBUG_VALUE: _M_construct_aux<const char *>:__beg <- %R5
	@DEBUG_VALUE: _M_construct<const char *>:__beg <- %R5
	@DEBUG_VALUE: length:__s <- %R5
	@DEBUG_VALUE: basic_string:__s <- %R5
	@DEBUG_VALUE: setup:context <- %R8
	.loc	63 232 16               @ /usr/bin/../lib/gcc/arm-linux-gnueabihf/6.3.0/../../../../include/c++/6.3.0/bits/basic_string.tcc:232:16
	ldr	r0, [sp, #72]
.Ltmp504:
	@DEBUG_VALUE: _M_set_length:__n <- %R0
	@DEBUG_VALUE: _M_length:__length <- %R0
	@DEBUG_VALUE: _M_construct<const char *>:__dnew <- %R0
	.loc	38 243 14               @ /usr/bin/../lib/gcc/arm-linux-gnueabihf/6.3.0/../../../../include/c++/6.3.0/bits/char_traits.h:243:14
	mov	r2, #0
.Ltmp505:
	.loc	36 132 26               @ /usr/bin/../lib/gcc/arm-linux-gnueabihf/6.3.0/../../../../include/c++/6.3.0/bits/basic_string.h:132:26
	str	r0, [sp, #52]
	add	r3, sp, #24
.Ltmp506:
	@DEBUG_VALUE: _M_data:this <- %R3
	@DEBUG_VALUE: _M_length:this <- %R3
	@DEBUG_VALUE: _M_set_length:__n <- 3
	@DEBUG_VALUE: _M_set_length:this <- %R3
	@DEBUG_VALUE: _M_data:this <- %R3
	@DEBUG_VALUE: _M_construct<const char *>:__dnew <- 3
	@DEBUG_VALUE: _M_construct<const char *>:this <- %R3
	@DEBUG_VALUE: _M_construct_aux<const char *>:this <- %R3
	@DEBUG_VALUE: _M_construct<const char *>:this <- %R3
	@DEBUG_VALUE: _S_copy_chars:__p <- %R6
	@DEBUG_VALUE: _S_copy:__d <- %R6
	@DEBUG_VALUE: _M_local_data:this <- %R3
	.loc	36 136 28               @ /usr/bin/../lib/gcc/arm-linux-gnueabihf/6.3.0/../../../../include/c++/6.3.0/bits/basic_string.h:136:28
	ldr	r1, [sp, #48]
.Ltmp507:
	.loc	36 142 51               @ /usr/bin/../lib/gcc/arm-linux-gnueabihf/6.3.0/../../../../include/c++/6.3.0/bits/basic_string.h:142:51
	add	r6, r3, #8
.Ltmp508:
	.loc	38 243 14               @ /usr/bin/../lib/gcc/arm-linux-gnueabihf/6.3.0/../../../../include/c++/6.3.0/bits/char_traits.h:243:14
	strb	r2, [r1, r0]
.Ltmp509:
	.loc	38 290 33               @ /usr/bin/../lib/gcc/arm-linux-gnueabihf/6.3.0/../../../../include/c++/6.3.0/bits/char_traits.h:290:33
	mov	r0, #105
.Ltmp510:
	@DEBUG_VALUE: _S_copy:__n <- 3
	.loc	36 110 25               @ /usr/bin/../lib/gcc/arm-linux-gnueabihf/6.3.0/../../../../include/c++/6.3.0/bits/basic_string.h:110:25
	str	r6, [sp, #24]
.Ltmp511:
	.loc	38 290 33               @ /usr/bin/../lib/gcc/arm-linux-gnueabihf/6.3.0/../../../../include/c++/6.3.0/bits/char_traits.h:290:33
	strb	r0, [sp, #34]
	movw	r0, #30055
	strh	r0, [sp, #32]
	mov	r0, #3
.Ltmp512:
	@DEBUG_VALUE: _M_length:__length <- 3
	.loc	36 132 26               @ /usr/bin/../lib/gcc/arm-linux-gnueabihf/6.3.0/../../../../include/c++/6.3.0/bits/basic_string.h:132:26
	str	r0, [sp, #28]
.Ltmp513:
	.loc	38 243 14               @ /usr/bin/../lib/gcc/arm-linux-gnueabihf/6.3.0/../../../../include/c++/6.3.0/bits/char_traits.h:243:14
	strb	r2, [sp, #35]
.Ltmp514:
	.loc	7 151 6 discriminator 2 @ /root/Bela/projects/filter_matching2/render.cpp:151:6
.Ltmp427:
	movw	r5, :lower16:gui
.Ltmp515:
	add	r1, sp, #48
.Ltmp516:
	@DEBUG_VALUE: _M_data:this <- %R1
	@DEBUG_VALUE: _M_length:this <- %R1
	movt	r5, :upper16:gui
	movw	r2, #5555
	mov	r0, r5
	bl	_ZN3Gui5setupENSt7__cxx1112basic_stringIcSt11char_traitsIcESaIcEEEjS5_
.Ltmp517:
.Ltmp428:
.Ltmp518:
@ BB#15:
	@DEBUG_VALUE: setup:context <- %R8
	.loc	36 136 28               @ /usr/bin/../lib/gcc/arm-linux-gnueabihf/6.3.0/../../../../include/c++/6.3.0/bits/basic_string.h:136:28
	ldr	r0, [sp, #24]
.Ltmp519:
	@DEBUG_VALUE: deallocate:__p <- %R0
	@DEBUG_VALUE: deallocate:__p <- %R0
	.loc	36 180 6                @ /usr/bin/../lib/gcc/arm-linux-gnueabihf/6.3.0/../../../../include/c++/6.3.0/bits/basic_string.h:180:6
	cmp	r0, r6
	beq	.LBB6_17
.Ltmp520:
@ BB#16:
	@DEBUG_VALUE: deallocate:__p <- %R0
	@DEBUG_VALUE: deallocate:__p <- %R0
	@DEBUG_VALUE: setup:context <- %R8
	.loc	9 110 9                 @ /usr/bin/../lib/gcc/arm-linux-gnueabihf/6.3.0/../../../../include/c++/6.3.0/ext/new_allocator.h:110:9
	bl	_ZdlPv
.Ltmp521:
.LBB6_17:                               @ %_ZNSt7__cxx1112basic_stringIcSt11char_traitsIcESaIcEED2Ev.exit23
	@DEBUG_VALUE: setup:context <- %R8
	.loc	36 136 28               @ /usr/bin/../lib/gcc/arm-linux-gnueabihf/6.3.0/../../../../include/c++/6.3.0/bits/basic_string.h:136:28
	ldr	r0, [sp, #48]
.Ltmp522:
	@DEBUG_VALUE: deallocate:__p <- %R0
	@DEBUG_VALUE: deallocate:__p <- %R0
	.loc	36 180 6                @ /usr/bin/../lib/gcc/arm-linux-gnueabihf/6.3.0/../../../../include/c++/6.3.0/bits/basic_string.h:180:6
	cmp	r0, r7
	beq	.LBB6_19
.Ltmp523:
@ BB#18:
	@DEBUG_VALUE: deallocate:__p <- %R0
	@DEBUG_VALUE: deallocate:__p <- %R0
	@DEBUG_VALUE: setup:context <- %R8
	.loc	9 110 9                 @ /usr/bin/../lib/gcc/arm-linux-gnueabihf/6.3.0/../../../../include/c++/6.3.0/ext/new_allocator.h:110:9
	bl	_ZdlPv
.Ltmp524:
.LBB6_19:                               @ %_ZNSt7__cxx1112basic_stringIcSt11char_traitsIcESaIcEED2Ev.exit24
	@DEBUG_VALUE: setup:context <- %R8
	.loc	26 1643 4               @ /usr/bin/../lib/gcc/arm-linux-gnueabihf/6.3.0/../../../../include/c++/6.3.0/functional:1643:4
	movw	r0, :lower16:_Z11guiCallbackRSt3mapINSt7__cxx1112basic_stringIwSt11char_traitsIwESaIwEEEP9JSONValueSt4lessIS5_ESaISt4pairIKS5_S7_EEEPv
	add	r1, sp, #8
.Ltmp525:
	@DEBUG_VALUE: function:__x <- %R1
	@DEBUG_VALUE: operator=:__x <- %R1
	@DEBUG_VALUE: function<bool (*)(std::map<std::__cxx11::basic_string<wchar_t>, JSONValue *, std::less<std::__cxx11::basic_string<wchar_t> >, std::allocator<std::pair<const std::__cxx11::basic_string<wchar_t>, JSONValue *> > > &, void *), void, void>:this <- %R1
	movt	r0, :upper16:_Z11guiCallbackRSt3mapINSt7__cxx1112basic_stringIwSt11char_traitsIwESaIwEEEP9JSONValueSt4lessIS5_ESaISt4pairIKS5_S7_EEEPv
	mov	r6, #0
	str	r0, [sp, #8]
.Ltmp526:
	.loc	26 2115 17              @ /usr/bin/../lib/gcc/arm-linux-gnueabihf/6.3.0/../../../../include/c++/6.3.0/functional:2115:17
	movw	r0, :lower16:_ZNSt17_Function_handlerIFbRSt3mapINSt7__cxx1112basic_stringIwSt11char_traitsIwESaIwEEEP9JSONValueSt4lessIS6_ESaISt4pairIKS6_S8_EEEPvEPSI_E9_M_invokeERKSt9_Any_dataSG_OSH_
	movt	r0, :upper16:_ZNSt17_Function_handlerIFbRSt3mapINSt7__cxx1112basic_stringIwSt11char_traitsIwESaIwEEEP9JSONValueSt4lessIS6_ESaISt4pairIKS6_S8_EEEPvEPSI_E9_M_invokeERKSt9_Any_dataSG_OSH_
.Ltmp527:
	.loc	26 2098 4               @ /usr/bin/../lib/gcc/arm-linux-gnueabihf/6.3.0/../../../../include/c++/6.3.0/functional:2098:4
	mov	r2, #2
.Ltmp528:
	.loc	26 2115 17              @ /usr/bin/../lib/gcc/arm-linux-gnueabihf/6.3.0/../../../../include/c++/6.3.0/functional:2115:17
	str	r0, [sp, #20]
	.loc	26 2116 17              @ /usr/bin/../lib/gcc/arm-linux-gnueabihf/6.3.0/../../../../include/c++/6.3.0/functional:2116:17
	movw	r0, :lower16:_ZNSt14_Function_base13_Base_managerIPFbRSt3mapINSt7__cxx1112basic_stringIwSt11char_traitsIwESaIwEEEP9JSONValueSt4lessIS7_ESaISt4pairIKS7_S9_EEEPvEE10_M_managerERSt9_Any_dataRKSM_St18_Manager_operation
	movt	r0, :upper16:_ZNSt14_Function_base13_Base_managerIPFbRSt3mapINSt7__cxx1112basic_stringIwSt11char_traitsIwESaIwEEEP9JSONValueSt4lessIS7_ESaISt4pairIKS7_S9_EEEPvEE10_M_managerERSt9_Any_dataRKSM_St18_Manager_operation
.Ltmp529:
	.loc	26 1685 24              @ /usr/bin/../lib/gcc/arm-linux-gnueabihf/6.3.0/../../../../include/c++/6.3.0/functional:1685:24
	str	r6, [sp, #80]
.Ltmp530:
	.loc	26 2116 17              @ /usr/bin/../lib/gcc/arm-linux-gnueabihf/6.3.0/../../../../include/c++/6.3.0/functional:2116:17
	str	r0, [sp, #16]
	add	r0, sp, #72
.Ltmp531:
	@DEBUG_VALUE: swap:this <- %R0
	@DEBUG_VALUE: function:this <- %R0
	.loc	26 2098 4               @ /usr/bin/../lib/gcc/arm-linux-gnueabihf/6.3.0/../../../../include/c++/6.3.0/functional:2098:4
	bl	_ZNSt14_Function_base13_Base_managerIPFbRSt3mapINSt7__cxx1112basic_stringIwSt11char_traitsIwESaIwEEEP9JSONValueSt4lessIS7_ESaISt4pairIKS7_S9_EEEPvEE10_M_managerERSt9_Any_dataRKSM_St18_Manager_operation
.Ltmp532:
	.file	67 "/usr/bin/../lib/gcc/arm-linux-gnueabihf/6.3.0/../../../../include/c++/6.3.0/bits" "move.h"
	.loc	67 190 19 discriminator 2 @ /usr/bin/../lib/gcc/arm-linux-gnueabihf/6.3.0/../../../../include/c++/6.3.0/bits/move.h:190:19
	ldr	r7, [sp, #72]
	ldr	r4, [sp, #76]
	.loc	67 191 11 discriminator 1 @ /usr/bin/../lib/gcc/arm-linux-gnueabihf/6.3.0/../../../../include/c++/6.3.0/bits/move.h:191:11
	ldr	r1, [r5, #100]
	ldr	r0, [r5, #96]
	.loc	67 192 11 discriminator 1 @ /usr/bin/../lib/gcc/arm-linux-gnueabihf/6.3.0/../../../../include/c++/6.3.0/bits/move.h:192:11
	str	r4, [r5, #100]
	str	r7, [r5, #96]
.Ltmp533:
	.loc	67 191 13               @ /usr/bin/../lib/gcc/arm-linux-gnueabihf/6.3.0/../../../../include/c++/6.3.0/bits/move.h:191:13
	ldr	r7, [r5, #104]
.Ltmp534:
	.loc	26 2100 21              @ /usr/bin/../lib/gcc/arm-linux-gnueabihf/6.3.0/../../../../include/c++/6.3.0/functional:2100:21
	ldr	r3, [sp, #16]
.Ltmp535:
	.loc	67 192 11               @ /usr/bin/../lib/gcc/arm-linux-gnueabihf/6.3.0/../../../../include/c++/6.3.0/bits/move.h:192:11
	str	r3, [r5, #104]
.Ltmp536:
	.loc	26 1689 11              @ /usr/bin/../lib/gcc/arm-linux-gnueabihf/6.3.0/../../../../include/c++/6.3.0/functional:1689:11
	cmp	r7, #0
.Ltmp537:
	@DEBUG_VALUE: function<bool (*)(std::map<std::__cxx11::basic_string<wchar_t>, JSONValue *, std::less<std::__cxx11::basic_string<wchar_t> >, std::allocator<std::pair<const std::__cxx11::basic_string<wchar_t>, JSONValue *> > > &, void *), void, void>:__f <- %R0
	@DEBUG_VALUE: setControlDataCallback:this <- %R5
	.loc	67 191 11 discriminator 1 @ /usr/bin/../lib/gcc/arm-linux-gnueabihf/6.3.0/../../../../include/c++/6.3.0/bits/move.h:191:11
	str	r1, [sp, #76]
	str	r0, [sp, #72]
.Ltmp538:
	.loc	26 2099 21              @ /usr/bin/../lib/gcc/arm-linux-gnueabihf/6.3.0/../../../../include/c++/6.3.0/functional:2099:21
	ldr	r2, [sp, #20]
.Ltmp539:
	.loc	67 191 13               @ /usr/bin/../lib/gcc/arm-linux-gnueabihf/6.3.0/../../../../include/c++/6.3.0/bits/move.h:191:13
	ldr	r0, [r5, #108]
.Ltmp540:
	.loc	67 191 11 is_stmt 0     @ /usr/bin/../lib/gcc/arm-linux-gnueabihf/6.3.0/../../../../include/c++/6.3.0/bits/move.h:191:11
	str	r7, [sp, #80]
.Ltmp541:
	.loc	67 191 11               @ /usr/bin/../lib/gcc/arm-linux-gnueabihf/6.3.0/../../../../include/c++/6.3.0/bits/move.h:191:11
	str	r0, [sp, #84]
	.loc	67 192 11 is_stmt 1     @ /usr/bin/../lib/gcc/arm-linux-gnueabihf/6.3.0/../../../../include/c++/6.3.0/bits/move.h:192:11
	str	r2, [r5, #108]
	beq	.LBB6_22
.Ltmp542:
@ BB#20:
	@DEBUG_VALUE: setControlDataCallback:this <- %R5
	@DEBUG_VALUE: setup:context <- %R8
	.loc	26 1690 2               @ /usr/bin/../lib/gcc/arm-linux-gnueabihf/6.3.0/../../../../include/c++/6.3.0/functional:1690:2
.Ltmp430:
	add	r0, sp, #72
	mov	r2, #3
	mov	r1, r0
	blx	r7
.Ltmp431:
.Ltmp543:
@ BB#21:                                @ %._crit_edge
	@DEBUG_VALUE: setControlDataCallback:this <- %R5
	@DEBUG_VALUE: setup:context <- %R8
	.loc	26 1689 11              @ /usr/bin/../lib/gcc/arm-linux-gnueabihf/6.3.0/../../../../include/c++/6.3.0/functional:1689:11
	ldr	r3, [sp, #16]
.Ltmp544:
.LBB6_22:
	@DEBUG_VALUE: setControlDataCallback:this <- %R5
	@DEBUG_VALUE: setup:context <- %R8
	@DEBUG_VALUE: setControlDataCallback:callbackArg <- %R6
	.loc	15 92 23                @ ./libraries/Gui/Gui.h:92:23
	str	r6, [r5, #128]
.Ltmp545:
	.loc	26 1689 11              @ /usr/bin/../lib/gcc/arm-linux-gnueabihf/6.3.0/../../../../include/c++/6.3.0/functional:1689:11
	cmp	r3, #0
	beq	.LBB6_24
.Ltmp546:
@ BB#23:
	@DEBUG_VALUE: setControlDataCallback:callbackArg <- %R6
	@DEBUG_VALUE: setControlDataCallback:this <- %R5
	@DEBUG_VALUE: setup:context <- %R8
	.loc	26 1690 2               @ /usr/bin/../lib/gcc/arm-linux-gnueabihf/6.3.0/../../../../include/c++/6.3.0/functional:1690:2
.Ltmp433:
	add	r0, sp, #8
	mov	r2, #3
	mov	r1, r0
	blx	r3
.Ltmp434:
.Ltmp547:
.LBB6_24:                               @ %_ZNSt14_Function_baseD2Ev.exit27
	@DEBUG_VALUE: setControlDataCallback:callbackArg <- %R6
	@DEBUG_VALUE: setControlDataCallback:this <- %R5
	@DEBUG_VALUE: setup:context <- %R8
	.loc	7 154 8                 @ /root/Bela/projects/filter_matching2/render.cpp:154:8
	movw	r0, :lower16:scope
	.loc	7 154 26 is_stmt 0      @ /root/Bela/projects/filter_matching2/render.cpp:154:26
	vldr	s0, [r8, #32]
	.loc	7 154 8                 @ /root/Bela/projects/filter_matching2/render.cpp:154:8
	movt	r0, :upper16:scope
	mov	r1, #3
	bl	_ZN5Scope5setupEjf
	.loc	7 155 2 is_stmt 1       @ /root/Bela/projects/filter_matching2/render.cpp:155:2
	mov	r0, #1
	sub	sp, r11, #24
	pop	{r4, r5, r6, r7, r8, r10, r11, pc}
.Ltmp548:
.LBB6_25:
	@DEBUG_VALUE: _S_copy:__n <- %R6
	@DEBUG_VALUE: assign:__c2 <- %R5
	@DEBUG_VALUE: _S_copy:__s <- %R5
	@DEBUG_VALUE: _S_copy_chars:__k1 <- %R5
	@DEBUG_VALUE: _M_construct<const char *>:__beg <- %R5
	@DEBUG_VALUE: _M_construct_aux<const char *>:__beg <- %R5
	@DEBUG_VALUE: _M_construct<const char *>:__beg <- %R5
	@DEBUG_VALUE: length:__s <- %R5
	@DEBUG_VALUE: basic_string:__s <- %R5
	@DEBUG_VALUE: setup:context <- %R8
.Ltmp426:
	mov	lr, pc
	b	_Unwind_Resume
.Ltmp549:
.LBB6_26:
	@DEBUG_VALUE: setControlDataCallback:callbackArg <- %R6
	@DEBUG_VALUE: setControlDataCallback:this <- %R5
	@DEBUG_VALUE: setup:context <- %R8
.Ltmp435:
.Ltmp550:
	.loc	26 1690 2 discriminator 2 @ /usr/bin/../lib/gcc/arm-linux-gnueabihf/6.3.0/../../../../include/c++/6.3.0/functional:1690:2
	mov	lr, pc
	b	__clang_call_terminate
.Ltmp551:
.LBB6_27:
	@DEBUG_VALUE: setControlDataCallback:this <- %R5
	@DEBUG_VALUE: setup:context <- %R8
.Ltmp432:
.Ltmp552:
	.loc	26 1690 2 is_stmt 0 discriminator 2 @ /usr/bin/../lib/gcc/arm-linux-gnueabihf/6.3.0/../../../../include/c++/6.3.0/functional:1690:2
	mov	lr, pc
	b	__clang_call_terminate
.Ltmp553:
.LBB6_28:
	@DEBUG_VALUE: setup:context <- %R8
.Ltmp429:
	mov	r4, r0
.Ltmp554:
	.loc	36 136 28 is_stmt 1     @ /usr/bin/../lib/gcc/arm-linux-gnueabihf/6.3.0/../../../../include/c++/6.3.0/bits/basic_string.h:136:28
	ldr	r0, [sp, #24]
.Ltmp555:
	@DEBUG_VALUE: deallocate:__p <- %R0
	@DEBUG_VALUE: deallocate:__p <- %R0
	.loc	36 180 6                @ /usr/bin/../lib/gcc/arm-linux-gnueabihf/6.3.0/../../../../include/c++/6.3.0/bits/basic_string.h:180:6
	cmp	r0, r6
	beq	.LBB6_30
.Ltmp556:
@ BB#29:
	@DEBUG_VALUE: deallocate:__p <- %R0
	@DEBUG_VALUE: deallocate:__p <- %R0
	@DEBUG_VALUE: setup:context <- %R8
	.loc	9 110 9                 @ /usr/bin/../lib/gcc/arm-linux-gnueabihf/6.3.0/../../../../include/c++/6.3.0/ext/new_allocator.h:110:9
	bl	_ZdlPv
.Ltmp557:
.LBB6_30:                               @ %_ZNSt7__cxx1112basic_stringIcSt11char_traitsIcESaIcEED2Ev.exit25
	@DEBUG_VALUE: setup:context <- %R8
	.loc	36 136 28               @ /usr/bin/../lib/gcc/arm-linux-gnueabihf/6.3.0/../../../../include/c++/6.3.0/bits/basic_string.h:136:28
	ldr	r0, [sp, #48]
	b	.LBB6_32
.Ltmp558:
.LBB6_31:
	@DEBUG_VALUE: _S_copy:__s <- %R0
	@DEBUG_VALUE: basic_string:this <- %R5
	@DEBUG_VALUE: _M_local_data:this <- %R5
	@DEBUG_VALUE: _M_construct<const char *>:this <- %R5
	@DEBUG_VALUE: _M_construct_aux<const char *>:this <- %R5
	@DEBUG_VALUE: _M_construct<const char *>:this <- %R5
	@DEBUG_VALUE: _M_data:this <- %R5
	@DEBUG_VALUE: _M_set_length:this <- %R5
	@DEBUG_VALUE: _M_length:this <- %R5
	@DEBUG_VALUE: _M_data:this <- %R5
	@DEBUG_VALUE: setup:context <- %R8
.Ltmp423:
	mov	r4, r0
.Ltmp559:
	.loc	36 136 28 is_stmt 0     @ /usr/bin/../lib/gcc/arm-linux-gnueabihf/6.3.0/../../../../include/c++/6.3.0/bits/basic_string.h:136:28
	ldr	r0, [sp, #72]
.Ltmp560:
.LBB6_32:                               @ %_ZNSt7__cxx1112basic_stringIcSt11char_traitsIcESaIcEED2Ev.exit25
	@DEBUG_VALUE: setup:context <- %R8
	@DEBUG_VALUE: deallocate:__p <- %R0
	@DEBUG_VALUE: deallocate:__p <- %R0
	.loc	36 180 6 is_stmt 1      @ /usr/bin/../lib/gcc/arm-linux-gnueabihf/6.3.0/../../../../include/c++/6.3.0/bits/basic_string.h:180:6
	cmp	r0, r7
	beq	.LBB6_34
.Ltmp561:
@ BB#33:
	@DEBUG_VALUE: deallocate:__p <- %R0
	@DEBUG_VALUE: deallocate:__p <- %R0
	@DEBUG_VALUE: setup:context <- %R8
	.loc	9 110 9                 @ /usr/bin/../lib/gcc/arm-linux-gnueabihf/6.3.0/../../../../include/c++/6.3.0/ext/new_allocator.h:110:9
	bl	_ZdlPv
.Ltmp562:
.LBB6_34:                               @ %_ZNSt7__cxx1112basic_stringIcSt11char_traitsIcESaIcEED2Ev.exit10
	@DEBUG_VALUE: setup:context <- %R8
	mov	r0, r4
	mov	lr, pc
	b	_Unwind_Resume
.Ltmp563:
	.p2align	3
@ BB#35:
.LCPI6_0:
	.long	0                       @ double 350
	.long	1081466880
.Lfunc_end6:
	.size	setup, .Lfunc_end6-setup
	.cfi_endproc
	.globl	__gxx_personality_v0
	.personality __gxx_personality_v0
	.handlerdata
	.p2align	2
GCC_except_table6:
.Lexception4:
	.byte	255                     @ @LPStart Encoding = omit
	.byte	0                       @ @TType Encoding = absptr
	.byte	125                     @ @TType base offset
	.byte	3                       @ Call site Encoding = udata4
	.byte	117                     @ Call site table length
	.long	.Lfunc_begin6-.Lfunc_begin6 @ >> Call Site 1 <<
	.long	.Ltmp421-.Lfunc_begin6  @   Call between .Lfunc_begin6 and .Ltmp421
	.long	0                       @     has no landing pad
	.byte	0                       @   On action: cleanup
	.long	.Ltmp421-.Lfunc_begin6  @ >> Call Site 2 <<
	.long	.Ltmp422-.Ltmp421       @   Call between .Ltmp421 and .Ltmp422
	.long	.Ltmp423-.Lfunc_begin6  @     jumps to .Ltmp423
	.byte	0                       @   On action: cleanup
	.long	.Ltmp422-.Lfunc_begin6  @ >> Call Site 3 <<
	.long	.Ltmp424-.Ltmp422       @   Call between .Ltmp422 and .Ltmp424
	.long	0                       @     has no landing pad
	.byte	0                       @   On action: cleanup
	.long	.Ltmp424-.Lfunc_begin6  @ >> Call Site 4 <<
	.long	.Ltmp425-.Ltmp424       @   Call between .Ltmp424 and .Ltmp425
	.long	.Ltmp426-.Lfunc_begin6  @     jumps to .Ltmp426
	.byte	0                       @   On action: cleanup
	.long	.Ltmp425-.Lfunc_begin6  @ >> Call Site 5 <<
	.long	.Ltmp427-.Ltmp425       @   Call between .Ltmp425 and .Ltmp427
	.long	0                       @     has no landing pad
	.byte	0                       @   On action: cleanup
	.long	.Ltmp427-.Lfunc_begin6  @ >> Call Site 6 <<
	.long	.Ltmp428-.Ltmp427       @   Call between .Ltmp427 and .Ltmp428
	.long	.Ltmp429-.Lfunc_begin6  @     jumps to .Ltmp429
	.byte	0                       @   On action: cleanup
	.long	.Ltmp430-.Lfunc_begin6  @ >> Call Site 7 <<
	.long	.Ltmp431-.Ltmp430       @   Call between .Ltmp430 and .Ltmp431
	.long	.Ltmp432-.Lfunc_begin6  @     jumps to .Ltmp432
	.byte	1                       @   On action: 1
	.long	.Ltmp433-.Lfunc_begin6  @ >> Call Site 8 <<
	.long	.Ltmp434-.Ltmp433       @   Call between .Ltmp433 and .Ltmp434
	.long	.Ltmp435-.Lfunc_begin6  @     jumps to .Ltmp435
	.byte	1                       @   On action: 1
	.long	.Ltmp434-.Lfunc_begin6  @ >> Call Site 9 <<
	.long	.Lfunc_end6-.Ltmp434    @   Call between .Ltmp434 and .Lfunc_end6
	.long	0                       @     has no landing pad
	.byte	0                       @   On action: cleanup
	.byte	1                       @ >> Action Record 1 <<
                                        @   Catch TypeInfo 1
	.byte	0                       @   No further actions
                                        @ >> Catch TypeInfos <<
	.long	0                       @ TypeInfo 1
	.p2align	2
	.fnend

	.globl	render
	.p2align	3
	.type	render,%function
render:                                 @ @render
.Lfunc_begin7:
	.loc	7 159 0                 @ /root/Bela/projects/filter_matching2/render.cpp:159:0
	.fnstart
	.cfi_startproc
@ BB#0:
	.save	{r4, r5, r6, r7, r8, r9, r10, r11, lr}
	push	{r4, r5, r6, r7, r8, r9, r10, r11, lr}
.Ltmp564:
	.cfi_def_cfa_offset 36
.Ltmp565:
	.cfi_offset lr, -4
.Ltmp566:
	.cfi_offset r11, -8
.Ltmp567:
	.cfi_offset r10, -12
.Ltmp568:
	.cfi_offset r9, -16
.Ltmp569:
	.cfi_offset r8, -20
.Ltmp570:
	.cfi_offset r7, -24
.Ltmp571:
	.cfi_offset r6, -28
.Ltmp572:
	.cfi_offset r5, -32
.Ltmp573:
	.cfi_offset r4, -36
	.setfp	r11, sp, #28
	add	r11, sp, #28
.Ltmp574:
	.cfi_def_cfa r11, 8
	.pad	#4
	sub	sp, sp, #4
	.vsave	{d8, d9, d10, d11, d12, d13, d14, d15}
	vpush	{d8, d9, d10, d11, d12, d13, d14, d15}
.Ltmp575:
	.cfi_offset d15, -48
.Ltmp576:
	.cfi_offset d14, -56
.Ltmp577:
	.cfi_offset d13, -64
.Ltmp578:
	.cfi_offset d12, -72
.Ltmp579:
	.cfi_offset d11, -80
.Ltmp580:
	.cfi_offset d10, -88
.Ltmp581:
	.cfi_offset d9, -96
.Ltmp582:
	.cfi_offset d8, -104
	.pad	#64
	sub	sp, sp, #64
	@DEBUG_VALUE: render:context <- %R0
	@DEBUG_VALUE: render:userData <- %R1
.Ltmp583:
	.loc	3 123 16 prologue_end discriminator 1 @ ./libraries/Pipe/Pipe.h:123:16
	movw	r5, :lower16:gPipe
.Ltmp584:
	.loc	3 125 14                @ ./libraries/Pipe/Pipe.h:125:14
	movw	r7, #52429
	add	r6, sp, #24
	mov	r10, r0
.Ltmp585:
	@DEBUG_VALUE: render:newSettingsReceived <- 0
	@DEBUG_VALUE: render:context <- %R10
	mov	r1, #0
.Ltmp586:
	.loc	3 123 16 discriminator 1 @ ./libraries/Pipe/Pipe.h:123:16
	movt	r5, :upper16:gPipe
.Ltmp587:
	.loc	3 125 14                @ ./libraries/Pipe/Pipe.h:125:14
	movt	r7, #52428
.Ltmp588:
.LBB7_1:                                @ =>This Inner Loop Header: Depth=1
	@DEBUG_VALUE: readRt<BiquadCoeff::Settings>:count <- 1
	mov	r4, r1
.Ltmp589:
	@DEBUG_VALUE: readRt<BiquadCoeff::Settings>:dest <- %R6
	@DEBUG_VALUE: readRt<BiquadCoeff::Settings>:dest <- %R6
	@DEBUG_VALUE: render:settings <- [%R6+0]
	@DEBUG_VALUE: readRt<BiquadCoeff::Settings>:this <- %R5
	.loc	3 123 16 discriminator 1 @ ./libraries/Pipe/Pipe.h:123:16
	mov	r0, r5
	mov	r1, r6
	mov	r2, #40
	bl	_ZN4Pipe7_readRtEPvj
.Ltmp590:
	@DEBUG_VALUE: readRt<BiquadCoeff::Settings>:ret <- %R0
	.loc	3 125 14                @ ./libraries/Pipe/Pipe.h:125:14
	umull	r1, r2, r0, r7
.Ltmp591:
	.loc	3 124 5                 @ ./libraries/Pipe/Pipe.h:124:5
	cmp	r0, #0
	mov	r1, #1
	lsrge	r0, r2, #5
.Ltmp592:
	.loc	7 167 2 discriminator 1 @ /root/Bela/projects/filter_matching2/render.cpp:167:2
	cmp	r0, #1
	beq	.LBB7_1
.Ltmp593:
@ BB#2:
	@DEBUG_VALUE: readRt<BiquadCoeff::Settings>:this <- %R5
	@DEBUG_VALUE: render:settings <- [%R6+0]
	@DEBUG_VALUE: readRt<BiquadCoeff::Settings>:dest <- %R6
	@DEBUG_VALUE: readRt<BiquadCoeff::Settings>:dest <- %R6
	.loc	7 174 5                 @ /root/Bela/projects/filter_matching2/render.cpp:174:5
	tst	r4, #1
	beq	.LBB7_7
.Ltmp594:
@ BB#3:
	@DEBUG_VALUE: readRt<BiquadCoeff::Settings>:this <- %R5
	@DEBUG_VALUE: render:settings <- [%R6+0]
	@DEBUG_VALUE: readRt<BiquadCoeff::Settings>:dest <- %R6
	@DEBUG_VALUE: readRt<BiquadCoeff::Settings>:dest <- %R6
	.loc	7 175 26                @ /root/Bela/projects/filter_matching2/render.cpp:175:26
	vldr	s0, [r10, #32]
.Ltmp595:
	.loc	31 777 20               @ /usr/bin/../lib/gcc/arm-linux-gnueabihf/6.3.0/../../../../include/c++/6.3.0/bits/stl_iterator.h:777:20
	movw	r1, :lower16:.L_MergedGlobals
	movt	r1, :upper16:.L_MergedGlobals
.Ltmp596:
	.loc	7 175 17                @ /root/Bela/projects/filter_matching2/render.cpp:175:17
	vcvt.f64.f32	d16, s0
.Ltmp597:
	.loc	31 777 20               @ /usr/bin/../lib/gcc/arm-linux-gnueabihf/6.3.0/../../../../include/c++/6.3.0/bits/stl_iterator.h:777:20
	ldr	r0, [r1, #44]
.Ltmp598:
	.loc	31 777 20 is_stmt 0     @ /usr/bin/../lib/gcc/arm-linux-gnueabihf/6.3.0/../../../../include/c++/6.3.0/bits/stl_iterator.h:777:20
	ldr	r1, [r1, #48]
.Ltmp599:
	.loc	7 176 15 is_stmt 1 discriminator 1 @ /root/Bela/projects/filter_matching2/render.cpp:176:15
	cmp	r0, r1
.Ltmp600:
	.loc	7 175 15                @ /root/Bela/projects/filter_matching2/render.cpp:175:15
	vstr	d16, [sp, #24]
	beq	.LBB7_7
.Ltmp601:
@ BB#4:                                 @ %.lr.ph77
	@DEBUG_VALUE: readRt<BiquadCoeff::Settings>:this <- %R5
	@DEBUG_VALUE: render:settings <- [%R6+0]
	@DEBUG_VALUE: readRt<BiquadCoeff::Settings>:dest <- %R6
	@DEBUG_VALUE: readRt<BiquadCoeff::Settings>:dest <- %R6
	.loc	29 121 6                @ ./libraries/Biquad/Biquad.h:121:6
	vmov.i32	q4, #0x0
.Ltmp602:
	.loc	7 176 15 discriminator 1 @ /root/Bela/projects/filter_matching2/render.cpp:176:15
	rsb	r5, r1, #0
.Ltmp603:
	add	r6, r0, #48
.Ltmp604:
	b	.LBB7_6
.LBB7_5:                                @ %._crit_edge78
                                        @   in Loop: Header=BB7_6 Depth=1
.Ltmp605:
	.loc	29 56 17                @ ./libraries/Biquad/Biquad.h:56:17
	vldr	d16, [sp, #24]
.Ltmp606:
	.loc	7 176 15 discriminator 1 @ /root/Bela/projects/filter_matching2/render.cpp:176:15
	add	r6, r6, #96
.LBB7_6:                                @ =>This Inner Loop Header: Depth=1
.Ltmp607:
	.loc	29 55 19                @ ./libraries/Biquad/Biquad.h:55:19
	ldr	r0, [sp, #32]
	.loc	29 55 8 is_stmt 0       @ ./libraries/Biquad/Biquad.h:55:8
	str	r0, [r6, #24]
	.loc	29 55 19                @ ./libraries/Biquad/Biquad.h:55:19
	sub	r0, r6, #48
	.loc	29 56 6 is_stmt 1       @ ./libraries/Biquad/Biquad.h:56:6
	vstr	d16, [r6, #16]
	.loc	29 57 17                @ ./libraries/Biquad/Biquad.h:57:17
	vldr	d17, [sp, #40]
	.loc	29 57 24 is_stmt 0      @ ./libraries/Biquad/Biquad.h:57:24
	vdiv.f64	d16, d17, d16
	.loc	29 57 6                 @ ./libraries/Biquad/Biquad.h:57:6
	vstr	d16, [r6, #-8]
	.loc	29 58 16 is_stmt 1      @ ./libraries/Biquad/Biquad.h:58:16
	vldr	d16, [sp, #48]
	.loc	29 58 5 is_stmt 0       @ ./libraries/Biquad/Biquad.h:58:5
	vstr	d16, [r6]
	.loc	29 59 23 is_stmt 1      @ ./libraries/Biquad/Biquad.h:59:23
	vldr	d16, [sp, #56]
	.loc	29 59 12 is_stmt 0      @ ./libraries/Biquad/Biquad.h:59:12
	vstr	d16, [r6, #8]
	.loc	29 60 3 is_stmt 1       @ ./libraries/Biquad/Biquad.h:60:3
	bl	_ZN12BiquadCoeffTIdE4calcEv
.Ltmp608:
	.loc	29 121 6                @ ./libraries/Biquad/Biquad.h:121:6
	add	r0, r6, #32
	vst1.64	{d8, d9}, [r0]
.Ltmp609:
	.loc	31 880 27               @ /usr/bin/../lib/gcc/arm-linux-gnueabihf/6.3.0/../../../../include/c++/6.3.0/bits/stl_iterator.h:880:27
	add	r0, r6, r5
.Ltmp610:
	.loc	7 176 15 discriminator 1 @ /root/Bela/projects/filter_matching2/render.cpp:176:15
	cmn	r0, #48
	bne	.LBB7_5
.Ltmp611:
.LBB7_7:                                @ %.preheader
	.loc	7 183 39 discriminator 1 @ /root/Bela/projects/filter_matching2/render.cpp:183:39
	ldr	r0, [r10, #20]
	.loc	7 183 2 is_stmt 0 discriminator 1 @ /root/Bela/projects/filter_matching2/render.cpp:183:2
	cmp	r0, #0
	beq	.LBB7_12
@ BB#8:                                 @ %.lr.ph
.Ltmp612:
	.loc	30 37 26 is_stmt 1      @ /root/Bela/projects/filter_matching2/ToneGenerator.h:37:26
	movw	r8, :lower16:.L_MergedGlobals
.Ltmp613:
	.loc	7 209 13                @ /root/Bela/projects/filter_matching2/render.cpp:209:13
	movw	r5, :lower16:.L_MergedGlobals.3
	.loc	7 213 9                 @ /root/Bela/projects/filter_matching2/render.cpp:213:9
	movw	r6, :lower16:scope
.Ltmp614:
	.loc	7 217 12                @ /root/Bela/projects/filter_matching2/render.cpp:217:12
	movw	r9, :lower16:.L_MergedGlobals.4
	.loc	7 217 15 is_stmt 0      @ /root/Bela/projects/filter_matching2/render.cpp:217:15
	movw	r4, #33289
.Ltmp615:
	.loc	30 38 51 is_stmt 1      @ /root/Bela/projects/filter_matching2/ToneGenerator.h:38:51
	vldr	s22, .LCPI7_0
.Ltmp616:
	.loc	30 40 12                @ /root/Bela/projects/filter_matching2/ToneGenerator.h:40:12
	vldr	s24, .LCPI7_1
	mov	r7, #0
.Ltmp617:
	.loc	7 196 22                @ /root/Bela/projects/filter_matching2/render.cpp:196:22
	vldr	d13, .LCPI7_3
.Ltmp618:
	.loc	30 37 26                @ /root/Bela/projects/filter_matching2/ToneGenerator.h:37:26
	movt	r8, :upper16:.L_MergedGlobals
.Ltmp619:
	.loc	7 200 33                @ /root/Bela/projects/filter_matching2/render.cpp:200:33
	vldr	d14, .LCPI7_4
	.loc	7 209 13                @ /root/Bela/projects/filter_matching2/render.cpp:209:13
	movt	r5, :upper16:.L_MergedGlobals.3
	.loc	7 213 9                 @ /root/Bela/projects/filter_matching2/render.cpp:213:9
	movt	r6, :upper16:scope
.Ltmp620:
	.loc	7 217 12                @ /root/Bela/projects/filter_matching2/render.cpp:217:12
	movt	r9, :upper16:.L_MergedGlobals.4
	.loc	7 217 15 is_stmt 0      @ /root/Bela/projects/filter_matching2/render.cpp:217:15
	movt	r4, #2080
.Ltmp621:
.LBB7_9:                                @ =>This Inner Loop Header: Depth=1
	vorr	d16, d11, d11
.Ltmp622:
	.loc	30 38 53 is_stmt 1      @ /root/Bela/projects/filter_matching2/ToneGenerator.h:38:53
	vldr	s2, [r8, #24]
	.loc	30 38 67 is_stmt 0      @ /root/Bela/projects/filter_matching2/ToneGenerator.h:38:67
	vldr	s4, [r8, #28]
	vorr	d17, d12, d12
	.loc	30 37 26 is_stmt 1      @ /root/Bela/projects/filter_matching2/ToneGenerator.h:37:26
	vldr	s0, [r8, #20]
	.loc	30 38 51                @ /root/Bela/projects/filter_matching2/ToneGenerator.h:38:51
	vmul.f32	d16, d1, d16
	.loc	30 38 65 is_stmt 0      @ /root/Bela/projects/filter_matching2/ToneGenerator.h:38:65
	vmul.f32	d16, d16, d2
	.loc	30 38 11                @ /root/Bela/projects/filter_matching2/ToneGenerator.h:38:11
	vadd.f32	d8, d16, d0
	.loc	30 37 21 is_stmt 1 discriminator 1 @ /root/Bela/projects/filter_matching2/ToneGenerator.h:37:21
                                        @ kill: %S0<def> %S0<kill> %D0<kill>
.Ltmp623:
	.loc	30 40 12                @ /root/Bela/projects/filter_matching2/ToneGenerator.h:40:12
	vadd.f32	d1, d8, d17
	.loc	30 39 14                @ /root/Bela/projects/filter_matching2/ToneGenerator.h:39:14
	vldr	d17, .LCPI7_2
	.loc	30 39 6 is_stmt 0       @ /root/Bela/projects/filter_matching2/ToneGenerator.h:39:6
	vcvt.f64.f32	d16, s16
.Ltmp624:
	.loc	30 39 6                 @ /root/Bela/projects/filter_matching2/ToneGenerator.h:39:6
	vcmpe.f64	d16, d17
	vmrs	APSR_nzcv, fpscr
	vmovgt.f32	s16, s2
	.loc	30 37 21 is_stmt 1 discriminator 1 @ /root/Bela/projects/filter_matching2/ToneGenerator.h:37:21
	bl	sinf
.Ltmp625:
	@DEBUG_VALUE: process:out <- %S0
	.loc	30 38 11                @ /root/Bela/projects/filter_matching2/ToneGenerator.h:38:11
	vstr	s16, [r8, #20]
	ldrd	r2, r3, [r10, #24]
.Ltmp626:
	.loc	7 196 24                @ /root/Bela/projects/filter_matching2/render.cpp:196:24
	vcvt.f64.f32	d16, s0
	ldrd	r0, r1, [r10]
.Ltmp627:
	.file	68 "./include" "Bela.h"
	.loc	68 1455 32              @ ./include/Bela.h:1455:32
	mul	r2, r2, r7
.Ltmp628:
	.loc	7 196 22                @ /root/Bela/projects/filter_matching2/render.cpp:196:22
	vmul.f64	d16, d16, d13
	add	r0, r0, r2, lsl #2
.Ltmp629:
	.loc	68 1466 26              @ ./include/Bela.h:1466:26
	mul	r2, r3, r7
	add	r1, r1, r2, lsl #2
.Ltmp630:
	.loc	68 1455 9               @ ./include/Bela.h:1455:9
	vldr	s0, [r0, #8]
.Ltmp631:
	.loc	7 196 56                @ /root/Bela/projects/filter_matching2/render.cpp:196:56
	vcvt.f64.f32	d17, s0
	.loc	7 196 54 is_stmt 0      @ /root/Bela/projects/filter_matching2/render.cpp:196:54
	vadd.f64	d16, d17, d16
	.loc	7 196 15                @ /root/Bela/projects/filter_matching2/render.cpp:196:15
	vcvt.f32.f64	s16, d16
.Ltmp632:
	@DEBUG_VALUE: out <- %S16
	.loc	7 200 29 is_stmt 1      @ /root/Bela/projects/filter_matching2/render.cpp:200:29
	vcvt.f64.f32	d16, s16
	.loc	7 200 33 is_stmt 0      @ /root/Bela/projects/filter_matching2/render.cpp:200:33
	vmul.f64	d16, d16, d14
	.loc	7 200 29                @ /root/Bela/projects/filter_matching2/render.cpp:200:29
	vcvt.f32.f64	s0, d16
.Ltmp633:
	.loc	68 1466 65 is_stmt 1    @ ./include/Bela.h:1466:65
	vstr	s0, [r1]
.Ltmp634:
	.loc	68 1466 65 is_stmt 0    @ ./include/Bela.h:1466:65
	vstr	s0, [r1, #4]
.Ltmp635:
	.loc	68 1455 9 is_stmt 1     @ ./include/Bela.h:1455:9
	vldr	s0, [r0, #4]
.Ltmp636:
	@DEBUG_VALUE: operator[]:__n <- 0
	@DEBUG_VALUE: dry_return <- %S0
	.loc	68 1455 9 is_stmt 0     @ ./include/Bela.h:1455:9
	vldr	s30, [r0]
.Ltmp637:
	@DEBUG_VALUE: transducer_return <- %S30
	.loc	13 781 32 is_stmt 1     @ /usr/bin/../lib/gcc/arm-linux-gnueabihf/6.3.0/../../../../include/c++/6.3.0/bits/stl_vector.h:781:32
	ldr	r0, [r8, #44]
.Ltmp638:
	@DEBUG_VALUE: process:this <- %R0
	.loc	7 206 72                @ /root/Bela/projects/filter_matching2/render.cpp:206:72
	vcvt.f64.f32	d16, s0
.Ltmp639:
	@DEBUG_VALUE: process:in <- %D16
	.loc	29 110 23               @ ./libraries/Biquad/Biquad.h:110:23
	vldmia	r0, {d17, d18}
	.loc	29 110 21 is_stmt 0     @ ./libraries/Biquad/Biquad.h:110:21
	vmul.f64	d17, d17, d16
	.loc	29 110 28               @ ./libraries/Biquad/Biquad.h:110:28
	vldr	d20, [r0, #80]
	.loc	29 111 11 is_stmt 1     @ ./libraries/Biquad/Biquad.h:111:11
	vmul.f64	d18, d18, d16
	.loc	29 110 26               @ ./libraries/Biquad/Biquad.h:110:26
	vadd.f64	d17, d17, d20
.Ltmp640:
	@DEBUG_VALUE: process:out <- %D17
	.loc	29 111 23               @ ./libraries/Biquad/Biquad.h:111:23
	vldr	d19, [r0, #24]
	.loc	29 111 18 is_stmt 0     @ ./libraries/Biquad/Biquad.h:111:18
	vldr	d21, [r0, #88]
	.loc	29 111 26               @ ./libraries/Biquad/Biquad.h:111:26
	vmul.f64	d19, d19, d17
	.loc	29 111 16               @ ./libraries/Biquad/Biquad.h:111:16
	vadd.f64	d18, d18, d21
	.loc	29 111 21               @ ./libraries/Biquad/Biquad.h:111:21
	vsub.f64	d18, d18, d19
.Ltmp641:
	.loc	7 206 32 is_stmt 1      @ /root/Bela/projects/filter_matching2/render.cpp:206:32
	vldr	s0, [r8, #4]
.Ltmp642:
	.loc	29 111 6                @ ./libraries/Biquad/Biquad.h:111:6
	vstr	d18, [r0, #80]
.Ltmp643:
	.loc	7 206 32                @ /root/Bela/projects/filter_matching2/render.cpp:206:32
	vcvt.f64.f32	d20, s0
.Ltmp644:
	.loc	29 112 18               @ ./libraries/Biquad/Biquad.h:112:18
	vldr	d19, [r0, #32]
	.loc	29 112 13 is_stmt 0     @ ./libraries/Biquad/Biquad.h:112:13
	vldr	d18, [r0, #16]
	.loc	29 112 21               @ ./libraries/Biquad/Biquad.h:112:21
	vmul.f64	d19, d19, d17
.Ltmp645:
	.loc	7 206 45 is_stmt 1      @ /root/Bela/projects/filter_matching2/render.cpp:206:45
	vmul.f64	d17, d17, d20
.Ltmp646:
	.loc	29 112 11               @ ./libraries/Biquad/Biquad.h:112:11
	vmul.f64	d16, d18, d16
.Ltmp647:
	.loc	7 206 32                @ /root/Bela/projects/filter_matching2/render.cpp:206:32
	vcvt.f32.f64	s20, d17
.Ltmp648:
	@DEBUG_VALUE: dry_return_processed <- %S20
	.loc	7 208 38                @ /root/Bela/projects/filter_matching2/render.cpp:208:38
	vsub.f32	d9, d15, d10
.Ltmp649:
	.loc	29 112 16               @ ./libraries/Biquad/Biquad.h:112:16
	vsub.f64	d16, d16, d19
.Ltmp650:
	.loc	7 208 12                @ /root/Bela/projects/filter_matching2/render.cpp:208:12
	vmov.f32	s0, s18
.Ltmp651:
	.loc	29 112 6                @ ./libraries/Biquad/Biquad.h:112:6
	vstr	d16, [r0, #88]
.Ltmp652:
	.loc	7 208 12                @ /root/Bela/projects/filter_matching2/render.cpp:208:12
	add	r0, r8, #68
.Ltmp653:
	bl	_ZN17GoertzelAlgorithm7processEf
	.loc	7 209 13                @ /root/Bela/projects/filter_matching2/render.cpp:209:13
	vmov.f32	s0, s16
	mov	r0, r5
	bl	_ZN17GoertzelAlgorithm7processEf
	.loc	7 213 13                @ /root/Bela/projects/filter_matching2/render.cpp:213:13
	vcvt.f64.f32	d16, s30
	.loc	7 213 9 is_stmt 0       @ /root/Bela/projects/filter_matching2/render.cpp:213:9
	mov	r0, r6
	vmov	r2, r3, d16
	.loc	7 213 32                @ /root/Bela/projects/filter_matching2/render.cpp:213:32
	vcvt.f64.f32	d17, s20
	.loc	7 213 54                @ /root/Bela/projects/filter_matching2/render.cpp:213:54
	vcvt.f64.f32	d16, s18
	.loc	7 213 9                 @ /root/Bela/projects/filter_matching2/render.cpp:213:9
	vstr	d17, [sp]
	vstr	d16, [sp, #8]
	bl	_ZN5Scope3logEdz
	ldr	r1, [r10, #28]
	ldr	r0, [r10, #4]
.Ltmp654:
	.loc	68 1466 26 is_stmt 1    @ ./include/Bela.h:1466:26
	mul	r1, r1, r7
	add	r0, r0, r1, lsl #2
	.loc	68 1466 65 is_stmt 0    @ ./include/Bela.h:1466:65
	vstr	s18, [r0, #8]
.Ltmp655:
	.loc	7 217 12 is_stmt 1      @ /root/Bela/projects/filter_matching2/render.cpp:217:12
	ldr	r0, [r9, #12]
	.loc	7 217 15 is_stmt 0      @ /root/Bela/projects/filter_matching2/render.cpp:217:15
	lsr	r1, r0, #5
	umull	r1, r2, r1, r4
	.loc	7 217 12                @ /root/Bela/projects/filter_matching2/render.cpp:217:12
	add	r1, r0, #1
	str	r1, [r9, #12]
	.loc	7 217 15                @ /root/Bela/projects/filter_matching2/render.cpp:217:15
	lsr	r1, r2, #1
	lsl	r1, r1, #6
	sub	r1, r1, r2, lsr #1
	sub	r0, r0, r1, lsl #5
.Ltmp656:
	.loc	7 217 7                 @ /root/Bela/projects/filter_matching2/render.cpp:217:7
	cmp	r0, #0
	bne	.LBB7_11
.Ltmp657:
@ BB#10:                                @   in Loop: Header=BB7_9 Depth=1
	@DEBUG_VALUE: dry_return_processed <- %S20
	@DEBUG_VALUE: transducer_return <- %S30
	@DEBUG_VALUE: out <- %S16
	.loc	33 52 16 is_stmt 1      @ /root/Bela/projects/filter_matching2/GoertzelAlgorithm.h:52:16
	vldr	s0, [r5, #24]
.Ltmp658:
	.loc	7 222 4                 @ /root/Bela/projects/filter_matching2/render.cpp:222:4
	movw	r0, :lower16:.L.str.15
.Ltmp659:
	.loc	33 52 16                @ /root/Bela/projects/filter_matching2/GoertzelAlgorithm.h:52:16
	vldr	s2, [r8, #92]
.Ltmp660:
	.loc	7 222 4                 @ /root/Bela/projects/filter_matching2/render.cpp:222:4
	movt	r0, :upper16:.L.str.15
	.loc	7 220 16                @ /root/Bela/projects/filter_matching2/render.cpp:220:16
	vldr	d17, [r9, #16]
	.loc	7 219 42                @ /root/Bela/projects/filter_matching2/render.cpp:219:42
	vsub.f32	d0, d1, d0
	.loc	7 219 18 is_stmt 0      @ /root/Bela/projects/filter_matching2/render.cpp:219:18
	vcvt.f64.f32	d16, s0
.Ltmp661:
	@DEBUG_VALUE: dMag <- %D16
	.loc	7 220 35 is_stmt 1      @ /root/Bela/projects/filter_matching2/render.cpp:220:35
	vadd.f64	d8, d16, d17
.Ltmp662:
	vmov.f64	d16, #5.000000e-01
.Ltmp663:
	vmul.f64	d16, d8, d16
.Ltmp664:
	@DEBUG_VALUE: dMag <- %D16
	.loc	7 222 4                 @ /root/Bela/projects/filter_matching2/render.cpp:222:4
	vmov	r2, r3, d16
	.loc	7 221 22                @ /root/Bela/projects/filter_matching2/render.cpp:221:22
	vstr	d16, [r9, #16]
	.loc	7 222 4                 @ /root/Bela/projects/filter_matching2/render.cpp:222:4
	bl	rt_printf
.Ltmp665:
	@DEBUG_VALUE: controller <- 30
	@DEBUG_VALUE: statusByte <- -80
	.loc	7 225 36                @ /root/Bela/projects/filter_matching2/render.cpp:225:36
	vmov.f64	d16, #3.000000e+01
	.loc	7 231 27                @ /root/Bela/projects/filter_matching2/render.cpp:231:27
	mov	r0, #176
	add	r1, sp, #21
	.loc	7 232 9                 @ /root/Bela/projects/filter_matching2/render.cpp:232:9
	mov	r2, #3
	.loc	7 225 36                @ /root/Bela/projects/filter_matching2/render.cpp:225:36
	vmul.f64	d16, d8, d16
	vldr	d17, .LCPI7_5
	vadd.f64	d16, d16, d17
	.loc	7 225 22 is_stmt 0      @ /root/Bela/projects/filter_matching2/render.cpp:225:22
	vcvt.s32.f64	s0, d16
	.loc	7 231 27 is_stmt 1      @ /root/Bela/projects/filter_matching2/render.cpp:231:27
	strb	r0, [sp, #21]
	mov	r0, #30
	strb	r0, [sp, #22]
	.loc	7 225 22                @ /root/Bela/projects/filter_matching2/render.cpp:225:22
	vmov	r0, s0
.Ltmp666:
	@DEBUG_VALUE: value <- %R0
	.loc	7 226 8                 @ /root/Bela/projects/filter_matching2/render.cpp:226:8
	cmp	r0, #127
	movwgt	r0, #127
.Ltmp667:
	.loc	7 228 8                 @ /root/Bela/projects/filter_matching2/render.cpp:228:8
	cmp	r0, #0
	movwlt	r0, #0
	.loc	7 231 27                @ /root/Bela/projects/filter_matching2/render.cpp:231:27
	strb	r0, [sp, #23]
.Ltmp668:
	@DEBUG_VALUE: bytes <- undef
	.loc	7 232 9                 @ /root/Bela/projects/filter_matching2/render.cpp:232:9
	movw	r0, :lower16:midi
	movt	r0, :upper16:midi
	bl	_ZN4Midi11writeOutputEPhj
.Ltmp669:
.LBB7_11:                               @   in Loop: Header=BB7_9 Depth=1
	@DEBUG_VALUE: dry_return_processed <- %S20
	@DEBUG_VALUE: transducer_return <- %S30
	.loc	7 183 52 discriminator 3 @ /root/Bela/projects/filter_matching2/render.cpp:183:52
	add	r7, r7, #1
.Ltmp670:
	@DEBUG_VALUE: n <- %R7
	.loc	7 183 39 is_stmt 0 discriminator 1 @ /root/Bela/projects/filter_matching2/render.cpp:183:39
	ldr	r0, [r10, #20]
	.loc	7 183 2 discriminator 1 @ /root/Bela/projects/filter_matching2/render.cpp:183:2
	cmp	r7, r0
	blo	.LBB7_9
.Ltmp671:
.LBB7_12:                               @ %._crit_edge
	.loc	7 236 1 is_stmt 1       @ /root/Bela/projects/filter_matching2/render.cpp:236:1
	sub	sp, r11, #96
	vpop	{d8, d9, d10, d11, d12, d13, d14, d15}
	add	sp, sp, #4
	pop	{r4, r5, r6, r7, r8, r9, r10, r11, pc}
.Ltmp672:
	.p2align	3
@ BB#13:
.LCPI7_2:
	.long	1413754136              @ double 3.1415926535897931
	.long	1074340347
.LCPI7_3:
	.long	3539053052              @ double 0.0080000000000000002
	.long	1065378381
.LCPI7_4:
	.long	2576980378              @ double 0.20000000000000001
	.long	1070176665
.LCPI7_5:
	.long	0                       @ double 120
	.long	1079902208
.LCPI7_0:
	.long	1086918619              @ float 6.28318548
.LCPI7_1:
	.long	3234402267              @ float -6.28318548
.Lfunc_end7:
	.size	render, .Lfunc_end7-render
	.cfi_endproc
	.fnend

	.section	.text._ZN17GoertzelAlgorithm7processEf,"axG",%progbits,_ZN17GoertzelAlgorithm7processEf,comdat
	.weak	_ZN17GoertzelAlgorithm7processEf
	.p2align	3
	.type	_ZN17GoertzelAlgorithm7processEf,%function
_ZN17GoertzelAlgorithm7processEf:       @ @_ZN17GoertzelAlgorithm7processEf
.Lfunc_begin8:
	.loc	33 39 0                 @ /root/Bela/projects/filter_matching2/GoertzelAlgorithm.h:39:0
	.fnstart
	.cfi_startproc
@ BB#0:
	.save	{r4, r5, r6, r10, r11, lr}
	push	{r4, r5, r6, r10, r11, lr}
.Ltmp673:
	.cfi_def_cfa_offset 24
.Ltmp674:
	.cfi_offset lr, -4
.Ltmp675:
	.cfi_offset r11, -8
.Ltmp676:
	.cfi_offset r10, -12
.Ltmp677:
	.cfi_offset r6, -16
.Ltmp678:
	.cfi_offset r5, -20
.Ltmp679:
	.cfi_offset r4, -24
	.setfp	r11, sp, #16
	add	r11, sp, #16
.Ltmp680:
	.cfi_def_cfa r11, 8
	.vsave	{d8}
	vpush	{d8}
.Ltmp681:
	.cfi_offset d8, -32
	@DEBUG_VALUE: process:this <- %R0
	@DEBUG_VALUE: process:new_sample <- %S0
	mov	r4, r0
.Ltmp682:
	@DEBUG_VALUE: process:this <- %R4
	vmov.f32	s16, s0
.Ltmp683:
	@DEBUG_VALUE: process:new_sample <- %S16
	.loc	33 40 70 prologue_end   @ /root/Bela/projects/filter_matching2/GoertzelAlgorithm.h:40:70
	ldr	r5, [r4, #20]
	.loc	33 40 69 is_stmt 0      @ /root/Bela/projects/filter_matching2/GoertzelAlgorithm.h:40:69
	vldr	d17, .LCPI8_0
	.loc	33 40 70                @ /root/Bela/projects/filter_matching2/GoertzelAlgorithm.h:40:70
	vmov	s0, r5
	vcvt.f64.s32	d16, s0
	.loc	33 40 100               @ /root/Bela/projects/filter_matching2/GoertzelAlgorithm.h:40:100
	ldr	r6, [r4, #32]
	.loc	33 40 69                @ /root/Bela/projects/filter_matching2/GoertzelAlgorithm.h:40:69
	vmul.f64	d16, d16, d17
	.loc	33 40 100               @ /root/Bela/projects/filter_matching2/GoertzelAlgorithm.h:40:100
	vmov	s0, r6
	vcvt.f64.s32	d17, s0
	.loc	33 40 99                @ /root/Bela/projects/filter_matching2/GoertzelAlgorithm.h:40:99
	vdiv.f64	d0, d16, d17
	.loc	33 40 41                @ /root/Bela/projects/filter_matching2/GoertzelAlgorithm.h:40:41
	bl	cos
	.loc	33 40 40                @ /root/Bela/projects/filter_matching2/GoertzelAlgorithm.h:40:40
	vldr	d16, .LCPI8_1
.Ltmp684:
	.loc	33 44 13 is_stmt 1      @ /root/Bela/projects/filter_matching2/GoertzelAlgorithm.h:44:13
	add	r0, r5, #1
.Ltmp685:
	.loc	33 40 35                @ /root/Bela/projects/filter_matching2/GoertzelAlgorithm.h:40:35
	vldr	d17, .LCPI8_2
	.loc	33 44 13                @ /root/Bela/projects/filter_matching2/GoertzelAlgorithm.h:44:13
	cmp	r0, r6
	.loc	33 40 40                @ /root/Bela/projects/filter_matching2/GoertzelAlgorithm.h:40:40
	vmul.f64	d16, d0, d16
	.loc	33 40 35 is_stmt 0      @ /root/Bela/projects/filter_matching2/GoertzelAlgorithm.h:40:35
	vadd.f64	d16, d16, d17
	.loc	33 40 19                @ /root/Bela/projects/filter_matching2/GoertzelAlgorithm.h:40:19
	vcvt.f64.f32	d17, s16
	.loc	33 40 29                @ /root/Bela/projects/filter_matching2/GoertzelAlgorithm.h:40:29
	vmul.f64	d16, d16, d17
.Ltmp686:
	.loc	33 64 46 is_stmt 1      @ /root/Bela/projects/filter_matching2/GoertzelAlgorithm.h:64:46
	vldr	s0, [r4]
	.loc	33 64 62 is_stmt 0      @ /root/Bela/projects/filter_matching2/GoertzelAlgorithm.h:64:62
	vldr	s4, [r4, #8]
.Ltmp687:
	.loc	33 40 19 is_stmt 1      @ /root/Bela/projects/filter_matching2/GoertzelAlgorithm.h:40:19
	vcvt.f32.f64	s2, d16
.Ltmp688:
	@DEBUG_VALUE: process:new_sample <- %S2
	.loc	33 41 48                @ /root/Bela/projects/filter_matching2/GoertzelAlgorithm.h:41:48
	vmul.f32	d16, d0, d2
	.loc	33 41 58 is_stmt 0      @ /root/Bela/projects/filter_matching2/GoertzelAlgorithm.h:41:58
	vldr	s6, [r4, #4]
	.loc	33 42 14 is_stmt 1      @ /root/Bela/projects/filter_matching2/GoertzelAlgorithm.h:42:14
	vstr	s0, [r4, #4]
.Ltmp689:
	@DEBUG_VALUE: process:q0 <- %S2
	.loc	33 41 31                @ /root/Bela/projects/filter_matching2/GoertzelAlgorithm.h:41:31
	vsub.f32	d16, d16, d3
.Ltmp690:
	.loc	33 64 30                @ /root/Bela/projects/filter_matching2/GoertzelAlgorithm.h:64:30
	vadd.f32	d1, d16, d1
.Ltmp691:
	.loc	33 43 14                @ /root/Bela/projects/filter_matching2/GoertzelAlgorithm.h:43:14
	vstr	s2, [r4]
.Ltmp692:
	.loc	33 44 13                @ /root/Bela/projects/filter_matching2/GoertzelAlgorithm.h:44:13
	str	r0, [r4, #20]
	bne	.LBB8_4
.Ltmp693:
@ BB#1:
	@DEBUG_VALUE: process:this <- %R4
	.loc	33 46 13                @ /root/Bela/projects/filter_matching2/GoertzelAlgorithm.h:46:13
	vmul.f32	d16, d2, d1
.Ltmp694:
	.loc	33 64 35                @ /root/Bela/projects/filter_matching2/GoertzelAlgorithm.h:64:35
	vmul.f32	d17, d1, d1
.Ltmp695:
	.loc	33 46 13                @ /root/Bela/projects/filter_matching2/GoertzelAlgorithm.h:46:13
	vsub.f32	d16, d0, d16
	vmul.f32	d16, d16, d0
.Ltmp696:
	.loc	33 64 59                @ /root/Bela/projects/filter_matching2/GoertzelAlgorithm.h:64:59
	vadd.f32	d2, d16, d17
.Ltmp697:
	@DEBUG_VALUE: sqrt:__x <- %S4
	.loc	60 487 12               @ /usr/bin/../lib/gcc/arm-linux-gnueabihf/6.3.0/../../../../include/c++/6.3.0/cmath:487:12
	vsqrt.f32	s6, s4
.Ltmp698:
	.loc	33 66 13                @ /root/Bela/projects/filter_matching2/GoertzelAlgorithm.h:66:13
	vcmpe.f32	s4, #0
	.loc	33 64 21                @ /root/Bela/projects/filter_matching2/GoertzelAlgorithm.h:64:21
	vstr	s6, [r4, #24]
	.loc	33 66 13                @ /root/Bela/projects/filter_matching2/GoertzelAlgorithm.h:66:13
	vmrs	APSR_nzcv, fpscr
.Ltmp699:
	@DEBUG_VALUE: processWindow:this <- %R4
	bge	.LBB8_3
.Ltmp700:
@ BB#2:
	@DEBUG_VALUE: processWindow:this <- %R4
	@DEBUG_VALUE: sqrt:__x <- %S4
	@DEBUG_VALUE: process:this <- %R4
	.loc	33 68 10                @ /root/Bela/projects/filter_matching2/GoertzelAlgorithm.h:68:10
	movw	r0, :lower16:.L.str.21
	movt	r0, :upper16:.L.str.21
	bl	rt_printf
.Ltmp701:
	.loc	33 71 22                @ /root/Bela/projects/filter_matching2/GoertzelAlgorithm.h:71:22
	vldr	s2, [r4]
	.loc	33 71 30 is_stmt 0      @ /root/Bela/projects/filter_matching2/GoertzelAlgorithm.h:71:30
	vldr	s0, [r4, #4]
.Ltmp702:
.LBB8_3:                                @ %_ZN17GoertzelAlgorithm13processWindowEv.exit
	@DEBUG_VALUE: processWindow:this <- %R4
	@DEBUG_VALUE: process:this <- %R4
	.loc	33 71 37                @ /root/Bela/projects/filter_matching2/GoertzelAlgorithm.h:71:37
	vldr	s6, [r4, #16]
	.loc	33 72 34 is_stmt 1      @ /root/Bela/projects/filter_matching2/GoertzelAlgorithm.h:72:34
	vldr	s4, [r4, #12]
	.loc	33 71 35                @ /root/Bela/projects/filter_matching2/GoertzelAlgorithm.h:71:35
	vmul.f32	d16, d3, d0
	.loc	33 72 32                @ /root/Bela/projects/filter_matching2/GoertzelAlgorithm.h:72:32
	vmul.f32	d0, d2, d0
	.loc	33 71 27                @ /root/Bela/projects/filter_matching2/GoertzelAlgorithm.h:71:27
	vsub.f32	d1, d1, d16
.Ltmp703:
	@DEBUG_VALUE: processWindow:real <- %S2
	@DEBUG_VALUE: processWindow:imaginary <- %S0
	.loc	33 73 34                @ /root/Bela/projects/filter_matching2/GoertzelAlgorithm.h:73:34
	vdiv.f32	s0, s0, s2
.Ltmp704:
	@DEBUG_VALUE: atan:__x <- %S0
	.loc	60 149 12               @ /usr/bin/../lib/gcc/arm-linux-gnueabihf/6.3.0/../../../../include/c++/6.3.0/cmath:149:12
	bl	atanf
.Ltmp705:
	mov	r0, #0
.Ltmp706:
	@DEBUG_VALUE: resetValues:this <- %R4
	.loc	33 73 17                @ /root/Bela/projects/filter_matching2/GoertzelAlgorithm.h:73:17
	vstr	s0, [r4, #28]
.Ltmp707:
	.loc	33 80 14                @ /root/Bela/projects/filter_matching2/GoertzelAlgorithm.h:80:14
	str	r0, [r4]
	.loc	33 81 14                @ /root/Bela/projects/filter_matching2/GoertzelAlgorithm.h:81:14
	str	r0, [r4, #4]
	.loc	33 82 39                @ /root/Bela/projects/filter_matching2/GoertzelAlgorithm.h:82:39
	str	r0, [r4, #20]
.Ltmp708:
.LBB8_4:
	@DEBUG_VALUE: process:this <- %R4
	.loc	33 48 5                 @ /root/Bela/projects/filter_matching2/GoertzelAlgorithm.h:48:5
	vpop	{d8}
	pop	{r4, r5, r6, r10, r11, pc}
.Ltmp709:
	.p2align	3
@ BB#5:
.LCPI8_0:
	.long	1413754136              @ double 6.2831853071795862
	.long	1075388923
.LCPI8_1:
	.long	3607772529              @ double -0.46000000000000002
	.long	3218960547
.LCPI8_2:
	.long	343597384               @ double 0.54000000000000004
	.long	1071728558
.Lfunc_end8:
	.size	_ZN17GoertzelAlgorithm7processEf, .Lfunc_end8-_ZN17GoertzelAlgorithm7processEf
	.cfi_endproc
	.fnend

	.text
	.globl	cleanup
	.p2align	2
	.type	cleanup,%function
cleanup:                                @ @cleanup
.Lfunc_begin9:
	.loc	7 239 0                 @ /root/Bela/projects/filter_matching2/render.cpp:239:0
	.fnstart
	.cfi_startproc
@ BB#0:
	@DEBUG_VALUE: cleanup:context <- %R0
	@DEBUG_VALUE: cleanup:userData <- %R1
	.loc	7 240 1 prologue_end    @ /root/Bela/projects/filter_matching2/render.cpp:240:1
	bx	lr
.Ltmp710:
.Lfunc_end9:
	.size	cleanup, .Lfunc_end9-cleanup
	.cfi_endproc
	.fnend

	.section	.text.__clang_call_terminate,"axG",%progbits,__clang_call_terminate,comdat
	.hidden	__clang_call_terminate
	.weak	__clang_call_terminate
	.p2align	2
	.type	__clang_call_terminate,%function
__clang_call_terminate:                 @ @__clang_call_terminate
.Lfunc_begin10:
	.fnstart
	.cfi_startproc
@ BB#0:
	.save	{r11, lr}
	push	{r11, lr}
.Ltmp711:
	.cfi_def_cfa_offset 8
.Ltmp712:
	.cfi_offset lr, -4
.Ltmp713:
	.cfi_offset r11, -8
	bl	__cxa_begin_catch
	mov	lr, pc
	b	_ZSt9terminatev
.Lfunc_end10:
	.size	__clang_call_terminate, .Lfunc_end10-__clang_call_terminate
	.cfi_endproc
	.cantunwind
	.fnend

	.section	.text._ZNSt3mapINSt7__cxx1112basic_stringIwSt11char_traitsIwESaIwEEEP9JSONValueSt4lessIS5_ESaISt4pairIKS5_S7_EEEixERSB_,"axG",%progbits,_ZNSt3mapINSt7__cxx1112basic_stringIwSt11char_traitsIwESaIwEEEP9JSONValueSt4lessIS5_ESaISt4pairIKS5_S7_EEEixERSB_,comdat
